(dp1
S'output'
p2
S"<type 'exceptions.TypeError'> Status(ID=1167343116967432193, ScreenName=None, Created=Fri Aug 30 07:47:41 +0000 2019, Text=u'RT @TNTSportsLA: Andrada y Armani, dos de los mejores arqueros de la Argentina, defienden los arcos m\\xe1s grandes de nuestro f\\xfatbol \\U0001f525 \\xbfCon qu\\u2026') is not JSON serializable"
p3
sS'layer'
p4
S'C:\\Users\\Ignacio\\Desktop\\TFG\\Git\\web2py\\applications\\twitter_api\\controllers/api.py'
p5
sS'code'
p6
S'<code object <module> at 000000000A8B9830, file "C:\\Users\\Ignacio\\Desktop\\TFG\\Git\\web2py\\applications\\twitter_api\\controllers/api.py", line 1>'
p7
sS'snapshot'
p8
(dp9
S'exception'
p10
(dp11
S'__getslice__'
p12
S"<method-wrapper '__getslice__' of exceptions.TypeError object>"
p13
sS'__str__'
p14
S"<method-wrapper '__str__' of exceptions.TypeError object>"
p15
sS'__reduce__'
p16
S'<built-in method __reduce__ of exceptions.TypeError object>'
p17
sS'__dict__'
p18
S'{}'
p19
sS'message'
p20
S'r"Status(ID=1167343116967432193, ScreenName=None, ...1f525 \\xbfCon qu\\u2026\') is not JSON serializable"'
p21
sS'__sizeof__'
p22
S'<built-in method __sizeof__ of exceptions.TypeError object>'
p23
sS'__init__'
p24
S"<method-wrapper '__init__' of exceptions.TypeError object>"
p25
sS'__setattr__'
p26
S"<method-wrapper '__setattr__' of exceptions.TypeError object>"
p27
sS'__reduce_ex__'
p28
S'<built-in method __reduce_ex__ of exceptions.TypeError object>'
p29
sS'__new__'
p30
S'<built-in method __new__ of type object>'
p31
sS'__format__'
p32
S'<built-in method __format__ of exceptions.TypeError object>'
p33
sS'__class__'
p34
S"<type 'exceptions.TypeError'>"
p35
sS'__doc__'
p36
S"'Inappropriate argument type.'"
p37
sS'__getitem__'
p38
S"<method-wrapper '__getitem__' of exceptions.TypeError object>"
p39
sS'__setstate__'
p40
S'<built-in method __setstate__ of exceptions.TypeError object>'
p41
sS'__getattribute__'
p42
S"<method-wrapper '__getattribute__' of exceptions.TypeError object>"
p43
sS'args'
p44
S'(r"Status(ID=1167343116967432193, ScreenName=None, ...1f525 \\xbfCon qu\\u2026\') is not JSON serializable",)'
p45
sS'__subclasshook__'
p46
S'<built-in method __subclasshook__ of type object>'
p47
sS'__unicode__'
p48
S'<built-in method __unicode__ of exceptions.TypeError object>'
p49
sS'__delattr__'
p50
S"<method-wrapper '__delattr__' of exceptions.TypeError object>"
p51
sS'__repr__'
p52
S"<method-wrapper '__repr__' of exceptions.TypeError object>"
p53
sS'__hash__'
p54
S"<method-wrapper '__hash__' of exceptions.TypeError object>"
p55
ssS'evalue'
p56
S"Status(ID=1167343116967432193, ScreenName=None, Created=Fri Aug 30 07:47:41 +0000 2019, Text=u'RT @TNTSportsLA: Andrada y Armani, dos de los mejores arqueros de la Argentina, defienden los arcos m\\xe1s grandes de nuestro f\\xfatbol \\U0001f525 \\xbfCon qu\\u2026') is not JSON serializable"
p57
sS'request'
p58
cgluon.html
XML_unpickle
p59
(S's\x8f\\\x00\x00<div><table><tr><td style="font-weight:bold;vertical-align:top;">ajax</td><td style="vertical-align:top;">:</td><td><div>True</div></td></tr><tr><td style="font-weight:bold;vertical-align:top;">application</td><td style="vertical-align:top;">:</td><td><div>twitter_api</div></td></tr><tr><td style="font-weight:bold;vertical-align:top;">args</td><td style="vertical-align:top;">:</td><td><div><table></table></div></td></tr><tr><td style="font-weight:bold;vertical-align:top;">cid</td><td style="vertical-align:top;">:</td><td><div>None</div></td></tr><tr><td style="font-weight:bold;vertical-align:top;">client</td><td style="vertical-align:top;">:</td><td><div>127.0.0.1</div></td></tr><tr><td style="font-weight:bold;vertical-align:top;">controller</td><td style="vertical-align:top;">:</td><td><div>api</div></td></tr><tr><td style="font-weight:bold;vertical-align:top;">cookies</td><td style="vertical-align:top;">:</td><td><div><table><tr><td style="font-weight:bold;vertical-align:top;">session_id_twitter_api</td><td style="vertical-align:top;">:</td><td><div>127.0.0.1-38df2b3d-91e8-43d1-8bd5-2959d47825b2<table><tr><td style="font-weight:bold;vertical-align:top;">comment</td><td style="vertical-align:top;">:</td><td><div></div></td></tr><tr><td style="font-weight:bold;vertical-align:top;">domain</td><td style="vertical-align:top;">:</td><td><div></div></td></tr><tr><td style="font-weight:bold;vertical-align:top;">expires</td><td style="vertical-align:top;">:</td><td><div></div></td></tr><tr><td style="font-weight:bold;vertical-align:top;">httponly</td><td style="vertical-align:top;">:</td><td><div></div></td></tr><tr><td style="font-weight:bold;vertical-align:top;">max-age</td><td style="vertical-align:top;">:</td><td><div></div></td></tr><tr><td style="font-weight:bold;vertical-align:top;">path</td><td style="vertical-align:top;">:</td><td><div></div></td></tr><tr><td style="font-weight:bold;vertical-align:top;">samesite</td><td style="vertical-align:top;">:</td><td><div></div></td></tr><tr><td style="font-weight:bold;vertical-align:top;">secure</td><td style="vertical-align:top;">:</td><td><div></div></td></tr><tr><td style="font-weight:bold;vertical-align:top;">version</td><td style="vertical-align:top;">:</td><td><div></div></td></tr></table></div></td></tr></table></div></td></tr><tr><td style="font-weight:bold;vertical-align:top;">env</td><td style="vertical-align:top;">:</td><td><div><table><tr><td style="font-weight:bold;vertical-align:top;">CONTENT_LENGTH</td><td style="vertical-align:top;">:</td><td><div>10</div></td></tr><tr><td style="font-weight:bold;vertical-align:top;">CONTENT_TYPE</td><td style="vertical-align:top;">:</td><td><div>application/x-www-form-urlencoded; charset=UTF-8</div></td></tr><tr><td style="font-weight:bold;vertical-align:top;">HTTP_ACCEPT</td><td style="vertical-align:top;">:</td><td><div>*/*</div></td></tr><tr><td style="font-weight:bold;vertical-align:top;">HTTP_ACCEPT_ENCODING</td><td style="vertical-align:top;">:</td><td><div>gzip, deflate, br</div></td></tr><tr><td style="font-weight:bold;vertical-align:top;">HTTP_ACCEPT_LANGUAGE</td><td style="vertical-align:top;">:</td><td><div>es,en;q=0.9</div></td></tr><tr><td style="font-weight:bold;vertical-align:top;">HTTP_CONNECTION</td><td style="vertical-align:top;">:</td><td><div>keep-alive</div></td></tr><tr><td style="font-weight:bold;vertical-align:top;">HTTP_CONTENT_LENGTH</td><td style="vertical-align:top;">:</td><td><div>10</div></td></tr><tr><td style="font-weight:bold;vertical-align:top;">HTTP_CONTENT_TYPE</td><td style="vertical-align:top;">:</td><td><div>application/x-www-form-urlencoded; charset=UTF-8</div></td></tr><tr><td style="font-weight:bold;vertical-align:top;">HTTP_COOKIE</td><td style="vertical-align:top;">:</td><td><div>session_id_twitter_api=127.0.0.1-38df2b3d-91e8-43d1-8bd5-2959d47825b2</div></td></tr><tr><td style="font-weight:bold;vertical-align:top;">HTTP_HOST</td><td style="vertical-align:top;">:</td><td><div>127.0.0.1:8000</div></td></tr><tr><td style="font-weight:bold;vertical-align:top;">HTTP_ORIGIN</td><td style="vertical-align:top;">:</td><td><div>http://127.0.0.1:8000</div></td></tr><tr><td style="font-weight:bold;vertical-align:top;">HTTP_REFERER</td><td style="vertical-align:top;">:</td><td><div>http://127.0.0.1:8000/</div></td></tr><tr><td style="font-weight:bold;vertical-align:top;">HTTP_SEC_FETCH_MODE</td><td style="vertical-align:top;">:</td><td><div>cors</div></td></tr><tr><td style="font-weight:bold;vertical-align:top;">HTTP_SEC_FETCH_SITE</td><td style="vertical-align:top;">:</td><td><div>same-origin</div></td></tr><tr><td style="font-weight:bold;vertical-align:top;">HTTP_USER_AGENT</td><td style="vertical-align:top;">:</td><td><div>Mozilla/5.0 (Windows NT 10.0; Win64; x64) AppleWebKit/537.36 (KHTML, like Gecko) Chrome/76.0.3809.132 Safari/537.36</div></td></tr><tr><td style="font-weight:bold;vertical-align:top;">HTTP_X_REQUESTED_WITH</td><td style="vertical-align:top;">:</td><td><div>XMLHttpRequest</div></td></tr><tr><td style="font-weight:bold;vertical-align:top;">PATH_INFO</td><td style="vertical-align:top;">:</td><td><div>/api/get_tweet</div></td></tr><tr><td style="font-weight:bold;vertical-align:top;">QUERY_STRING</td><td style="vertical-align:top;">:</td><td><div></div></td></tr><tr><td style="font-weight:bold;vertical-align:top;">REMOTE_ADDR</td><td style="vertical-align:top;">:</td><td><div>127.0.0.1</div></td></tr><tr><td style="font-weight:bold;vertical-align:top;">REMOTE_PORT</td><td style="vertical-align:top;">:</td><td><div>59971</div></td></tr><tr><td style="font-weight:bold;vertical-align:top;">REQUEST_METHOD</td><td style="vertical-align:top;">:</td><td><div>POST</div></td></tr><tr><td style="font-weight:bold;vertical-align:top;">SCRIPT_NAME</td><td style="vertical-align:top;">:</td><td><div></div></td></tr><tr><td style="font-weight:bold;vertical-align:top;">SERVER_NAME</td><td style="vertical-align:top;">:</td><td><div>LAPTOP-L4O5O5SF</div></td></tr><tr><td style="font-weight:bold;vertical-align:top;">SERVER_PORT</td><td style="vertical-align:top;">:</td><td><div>8000</div></td></tr><tr><td style="font-weight:bold;vertical-align:top;">SERVER_PROTOCOL</td><td style="vertical-align:top;">:</td><td><div>HTTP/1.1</div></td></tr><tr><td style="font-weight:bold;vertical-align:top;">SERVER_SOFTWARE</td><td style="vertical-align:top;">:</td><td><div>Rocket 1.2.6</div></td></tr><tr><td style="font-weight:bold;vertical-align:top;">app_folders</td><td style="vertical-align:top;">:</td><td><div>set([&#x27;C:\\\\Users\\\\Ignacio\\\\Desktop\\\\TFG\\\\Git\\\\web2py\\\\applications\\\\twitter_api&#x27;])</div></td></tr><tr><td style="font-weight:bold;vertical-align:top;">applications_parent</td><td style="vertical-align:top;">:</td><td><div>C:\\Users\\Ignacio\\Desktop\\TFG\\Git\\web2py</div></td></tr><tr><td style="font-weight:bold;vertical-align:top;">cmd_args</td><td style="vertical-align:top;">:</td><td><div><table></table></div></td></tr><tr><td style="font-weight:bold;vertical-align:top;">cmd_options</td><td style="vertical-align:top;">:</td><td><div>&lt;Values at 0x4004d48: {&#x27;verbose&#x27;: False, &#x27;ip&#x27;: &#x27;127.0.0.1&#x27;, &#x27;debuglevel&#x27;: 30, &#x27;with_scheduler&#x27;: False, &#x27;shutdown_timeout&#x27;: 5, &#x27;taskbar&#x27;: False, &#x27;with_coverage&#x27;: False, &#x27;pid_filename&#x27;: &#x27;httpserver.pid&#x27;, &#x27;maxthreads&#x27;: None, &#x27;softcron&#x27;: False, &#x27;server_name&#x27;: &#x27;LAPTOP-L4O5O5SF&#x27;, &#x27;bpython&#x27;: False, &#x27;nogui&#x27;: False, &#x27;port&#x27;: 8000, &#x27;print_errors&#x27;: True, &#x27;extcron&#x27;: False, &#x27;runcron&#x27;: False, &#x27;run_system_tests&#x27;: False, &#x27;test&#x27;: None, &#x27;folder&#x27;: &#x27;C:\\\\Users\\\\Ignacio\\\\Desktop\\\\TFG\\\\Git\\\\web2py&#x27;, &#x27;config&#x27;: &#x27;&#x27;, &#x27;minthreads&#x27;: None, &#x27;shell&#x27;: None, &#x27;run&#x27;: &#x27;&#x27;, &#x27;log_filename&#x27;: &#x27;httpserver.log&#x27;, &#x27;profiler_dir&#x27;: None, &#x27;args&#x27;: [], &#x27;socket_timeout&#x27;: 5, &#x27;ssl_ca_certificate&#x27;: None, &#x27;scheduler&#x27;: None, &#x27;interfaces&#x27;: None, &#x27;ssl_private_key&#x27;: &#x27;&#x27;, &#x27;gae&#x27;: None, &#x27;password&#x27;: &#x27;******&#x27;, &#x27;request_queue_size&#x27;: 5, &#x27;ssl_certificate&#x27;: &#x27;&#x27;, &#x27;cronjob&#x27;: False, &#x27;numthreads&#x27;: None, &#x27;quiet&#x27;: False, &#x27;import_models&#x27;: False, &#x27;timeout&#x27;: 10, &#x27;plain&#x27;: False, &#x27;nobanner&#x27;: False}&gt;</div></td></tr><tr><td style="font-weight:bold;vertical-align:top;">content_length</td><td style="vertical-align:top;">:</td><td><div>10</div></td></tr><tr><td style="font-weight:bold;vertical-align:top;">content_type</td><td style="vertical-align:top;">:</td><td><div>application/x-www-form-urlencoded; charset=UTF-8</div></td></tr><tr><td style="font-weight:bold;vertical-align:top;">db_sessions</td><td style="vertical-align:top;">:</td><td><div>set([])</div></td></tr><tr><td style="font-weight:bold;vertical-align:top;">debugging</td><td style="vertical-align:top;">:</td><td><div>False</div></td></tr><tr><td style="font-weight:bold;vertical-align:top;">gluon_parent</td><td style="vertical-align:top;">:</td><td><div>C:\\Users\\Ignacio\\Desktop\\TFG\\Git\\web2py</div></td></tr><tr><td style="font-weight:bold;vertical-align:top;">http_accept</td><td style="vertical-align:top;">:</td><td><div>*/*</div></td></tr><tr><td style="font-weight:bold;vertical-align:top;">http_accept_encoding</td><td style="vertical-align:top;">:</td><td><div>gzip, deflate, br</div></td></tr><tr><td style="font-weight:bold;vertical-align:top;">http_accept_language</td><td style="vertical-align:top;">:</td><td><div>es,en;q=0.9</div></td></tr><tr><td style="font-weight:bold;vertical-align:top;">http_connection</td><td style="vertical-align:top;">:</td><td><div>keep-alive</div></td></tr><tr><td style="font-weight:bold;vertical-align:top;">http_content_length</td><td style="vertical-align:top;">:</td><td><div>10</div></td></tr><tr><td style="font-weight:bold;vertical-align:top;">http_content_type</td><td style="vertical-align:top;">:</td><td><div>application/x-www-form-urlencoded; charset=UTF-8</div></td></tr><tr><td style="font-weight:bold;vertical-align:top;">http_cookie</td><td style="vertical-align:top;">:</td><td><div>session_id_twitter_api=127.0.0.1-38df2b3d-91e8-43d1-8bd5-2959d47825b2</div></td></tr><tr><td style="font-weight:bold;vertical-align:top;">http_host</td><td style="vertical-align:top;">:</td><td><div>127.0.0.1:8000</div></td></tr><tr><td style="font-weight:bold;vertical-align:top;">http_origin</td><td style="vertical-align:top;">:</td><td><div>http://127.0.0.1:8000</div></td></tr><tr><td style="font-weight:bold;vertical-align:top;">http_referer</td><td style="vertical-align:top;">:</td><td><div>http://127.0.0.1:8000/</div></td></tr><tr><td style="font-weight:bold;vertical-align:top;">http_sec_fetch_mode</td><td style="vertical-align:top;">:</td><td><div>cors</div></td></tr><tr><td style="font-weight:bold;vertical-align:top;">http_sec_fetch_site</td><td style="vertical-align:top;">:</td><td><div>same-origin</div></td></tr><tr><td style="font-weight:bold;vertical-align:top;">http_user_agent</td><td style="vertical-align:top;">:</td><td><div>Mozilla/5.0 (Windows NT 10.0; Win64; x64) AppleWebKit/537.36 (KHTML, like Gecko) Chrome/76.0.3809.132 Safari/537.36</div></td></tr><tr><td style="font-weight:bold;vertical-align:top;">http_x_requested_with</td><td style="vertical-align:top;">:</td><td><div>XMLHttpRequest</div></td></tr><tr><td style="font-weight:bold;vertical-align:top;">is_jython</td><td style="vertical-align:top;">:</td><td><div>False</div></td></tr><tr><td style="font-weight:bold;vertical-align:top;">is_py2</td><td style="vertical-align:top;">:</td><td><div>True</div></td></tr><tr><td style="font-weight:bold;vertical-align:top;">is_pypy</td><td style="vertical-align:top;">:</td><td><div>False</div></td></tr><tr><td style="font-weight:bold;vertical-align:top;">is_source</td><td style="vertical-align:top;">:</td><td><div>True</div></td></tr><tr><td style="font-weight:bold;vertical-align:top;">local_hosts</td><td style="vertical-align:top;">:</td><td><div><table><tr><td><div>fe80::64bf:1f23:8129:d457%10</div></td></tr><tr><td><div>LAPTOP-L4O5O5SF.home</div></td></tr><tr><td><div>LAPTOP-L4O5O5SF</div></td></tr><tr><td><div>192.168.1.103</div></td></tr><tr><td><div>::ffff:127.0.0.1</div></td></tr><tr><td><div>::1</div></td></tr><tr><td><div>2a02:2e02:32c9:8300:c430:1fa5:ce74:2269</div></td></tr><tr><td><div>127.0.0.1</div></td></tr><tr><td><div>2a02:2e02:32c9:8300:64bf:1f23:8129:d457</div></td></tr></table></div></td></tr><tr><td style="font-weight:bold;vertical-align:top;">path_info</td><td style="vertical-align:top;">:</td><td><div>/api/get_tweet</div></td></tr><tr><td style="font-weight:bold;vertical-align:top;">query_string</td><td style="vertical-align:top;">:</td><td><div></div></td></tr><tr><td style="font-weight:bold;vertical-align:top;">remote_addr</td><td style="vertical-align:top;">:</td><td><div>127.0.0.1</div></td></tr><tr><td style="font-weight:bold;vertical-align:top;">remote_port</td><td style="vertical-align:top;">:</td><td><div>59971</div></td></tr><tr><td style="font-weight:bold;vertical-align:top;">request_method</td><td style="vertical-align:top;">:</td><td><div>POST</div></td></tr><tr><td style="font-weight:bold;vertical-align:top;">request_uri</td><td style="vertical-align:top;">:</td><td><div>/twitter_api/en/api/get_tweet</div></td></tr><tr><td style="font-weight:bold;vertical-align:top;">script_name</td><td style="vertical-align:top;">:</td><td><div></div></td></tr><tr><td style="font-weight:bold;vertical-align:top;">server_name</td><td style="vertical-align:top;">:</td><td><div>LAPTOP-L4O5O5SF</div></td></tr><tr><td style="font-weight:bold;vertical-align:top;">server_port</td><td style="vertical-align:top;">:</td><td><div>8000</div></td></tr><tr><td style="font-weight:bold;vertical-align:top;">server_protocol</td><td style="vertical-align:top;">:</td><td><div>HTTP/1.1</div></td></tr><tr><td style="font-weight:bold;vertical-align:top;">server_software</td><td style="vertical-align:top;">:</td><td><div>Rocket 1.2.6</div></td></tr><tr><td style="font-weight:bold;vertical-align:top;">web2py_original_uri</td><td style="vertical-align:top;">:</td><td><div>/api/get_tweet</div></td></tr><tr><td style="font-weight:bold;vertical-align:top;">web2py_path</td><td style="vertical-align:top;">:</td><td><div>C:\\Users\\Ignacio\\Desktop\\TFG\\Git\\web2py</div></td></tr><tr><td style="font-weight:bold;vertical-align:top;">web2py_version</td><td style="vertical-align:top;">:</td><td><div>2.18.5-stable+timestamp.2019.04.08.04.22.03</div></td></tr><tr><td style="font-weight:bold;vertical-align:top;">wsgi.errors</td><td style="vertical-align:top;">:</td><td><div>&lt;open file &#x27;&lt;stderr&gt;&#x27;, mode &#x27;w&#x27; at 0x000000000278B150&gt;</div></td></tr><tr><td style="font-weight:bold;vertical-align:top;">wsgi.file_wrapper</td><td style="vertical-align:top;">:</td><td><div>&lt;class wsgiref.util.FileWrapper at 0x0000000003FB8B88&gt;</div></td></tr><tr><td style="font-weight:bold;vertical-align:top;">wsgi.input</td><td style="vertical-align:top;">:</td><td><div>&lt;socket._fileobject object at 0x00000000048811B0&gt;</div></td></tr><tr><td style="font-weight:bold;vertical-align:top;">wsgi.multiprocess</td><td style="vertical-align:top;">:</td><td><div>False</div></td></tr><tr><td style="font-weight:bold;vertical-align:top;">wsgi.multithread</td><td style="vertical-align:top;">:</td><td><div>True</div></td></tr><tr><td style="font-weight:bold;vertical-align:top;">wsgi.run_once</td><td style="vertical-align:top;">:</td><td><div>False</div></td></tr><tr><td style="font-weight:bold;vertical-align:top;">wsgi.url_scheme</td><td style="vertical-align:top;">:</td><td><div>http</div></td></tr><tr><td style="font-weight:bold;vertical-align:top;">wsgi.version</td><td style="vertical-align:top;">:</td><td><div><table><tr><td><div>1</div></td></tr><tr><td><div>0</div></td></tr></table></div></td></tr><tr><td style="font-weight:bold;vertical-align:top;">wsgi_errors</td><td style="vertical-align:top;">:</td><td><div>&lt;open file &#x27;&lt;stderr&gt;&#x27;, mode &#x27;w&#x27; at 0x000000000278B150&gt;</div></td></tr><tr><td style="font-weight:bold;vertical-align:top;">wsgi_file_wrapper</td><td style="vertical-align:top;">:</td><td><div>&lt;class wsgiref.util.FileWrapper at 0x0000000003FB8B88&gt;</div></td></tr><tr><td style="font-weight:bold;vertical-align:top;">wsgi_input</td><td style="vertical-align:top;">:</td><td><div>&lt;socket._fileobject object at 0x00000000048811B0&gt;</div></td></tr><tr><td style="font-weight:bold;vertical-align:top;">wsgi_multiprocess</td><td style="vertical-align:top;">:</td><td><div>False</div></td></tr><tr><td style="font-weight:bold;vertical-align:top;">wsgi_multithread</td><td style="vertical-align:top;">:</td><td><div>True</div></td></tr><tr><td style="font-weight:bold;vertical-align:top;">wsgi_run_once</td><td style="vertical-align:top;">:</td><td><div>False</div></td></tr><tr><td style="font-weight:bold;vertical-align:top;">wsgi_url_scheme</td><td style="vertical-align:top;">:</td><td><div>http</div></td></tr><tr><td style="font-weight:bold;vertical-align:top;">wsgi_version</td><td style="vertical-align:top;">:</td><td><div><table><tr><td><div>1</div></td></tr><tr><td><div>0</div></td></tr></table></div></td></tr></table></div></td></tr><tr><td style="font-weight:bold;vertical-align:top;">extension</td><td style="vertical-align:top;">:</td><td><div>html</div></td></tr><tr><td style="font-weight:bold;vertical-align:top;">folder</td><td style="vertical-align:top;">:</td><td><div>C:\\Users\\Ignacio\\Desktop\\TFG\\Git\\web2py\\applications\\twitter_api</div></td></tr><tr><td style="font-weight:bold;vertical-align:top;">function</td><td style="vertical-align:top;">:</td><td><div>get_tweet</div></td></tr><tr><td style="font-weight:bold;vertical-align:top;">global_settings</td><td style="vertical-align:top;">:</td><td><div><table><tr><td style="font-weight:bold;vertical-align:top;">app_folders</td><td style="vertical-align:top;">:</td><td><div>set([&#x27;C:\\\\Users\\\\Ignacio\\\\Desktop\\\\TFG\\\\Git\\\\web2py\\\\applications\\\\twitter_api&#x27;])</div></td></tr><tr><td style="font-weight:bold;vertical-align:top;">applications_parent</td><td style="vertical-align:top;">:</td><td><div>C:\\Users\\Ignacio\\Desktop\\TFG\\Git\\web2py</div></td></tr><tr><td style="font-weight:bold;vertical-align:top;">cmd_args</td><td style="vertical-align:top;">:</td><td><div><table></table></div></td></tr><tr><td style="font-weight:bold;vertical-align:top;">cmd_options</td><td style="vertical-align:top;">:</td><td><div>&lt;Values at 0x4004d48: {&#x27;verbose&#x27;: False, &#x27;ip&#x27;: &#x27;127.0.0.1&#x27;, &#x27;debuglevel&#x27;: 30, &#x27;with_scheduler&#x27;: False, &#x27;shutdown_timeout&#x27;: 5, &#x27;taskbar&#x27;: False, &#x27;with_coverage&#x27;: False, &#x27;pid_filename&#x27;: &#x27;httpserver.pid&#x27;, &#x27;maxthreads&#x27;: None, &#x27;softcron&#x27;: False, &#x27;server_name&#x27;: &#x27;LAPTOP-L4O5O5SF&#x27;, &#x27;bpython&#x27;: False, &#x27;nogui&#x27;: False, &#x27;port&#x27;: 8000, &#x27;print_errors&#x27;: True, &#x27;extcron&#x27;: False, &#x27;runcron&#x27;: False, &#x27;run_system_tests&#x27;: False, &#x27;test&#x27;: None, &#x27;folder&#x27;: &#x27;C:\\\\Users\\\\Ignacio\\\\Desktop\\\\TFG\\\\Git\\\\web2py&#x27;, &#x27;config&#x27;: &#x27;&#x27;, &#x27;minthreads&#x27;: None, &#x27;shell&#x27;: None, &#x27;run&#x27;: &#x27;&#x27;, &#x27;log_filename&#x27;: &#x27;httpserver.log&#x27;, &#x27;profiler_dir&#x27;: None, &#x27;args&#x27;: [], &#x27;socket_timeout&#x27;: 5, &#x27;ssl_ca_certificate&#x27;: None, &#x27;scheduler&#x27;: None, &#x27;interfaces&#x27;: None, &#x27;ssl_private_key&#x27;: &#x27;&#x27;, &#x27;gae&#x27;: None, &#x27;password&#x27;: &#x27;******&#x27;, &#x27;request_queue_size&#x27;: 5, &#x27;ssl_certificate&#x27;: &#x27;&#x27;, &#x27;cronjob&#x27;: False, &#x27;numthreads&#x27;: None, &#x27;quiet&#x27;: False, &#x27;import_models&#x27;: False, &#x27;timeout&#x27;: 10, &#x27;plain&#x27;: False, &#x27;nobanner&#x27;: False}&gt;</div></td></tr><tr><td style="font-weight:bold;vertical-align:top;">db_sessions</td><td style="vertical-align:top;">:</td><td><div>set([])</div></td></tr><tr><td style="font-weight:bold;vertical-align:top;">debugging</td><td style="vertical-align:top;">:</td><td><div>False</div></td></tr><tr><td style="font-weight:bold;vertical-align:top;">gluon_parent</td><td style="vertical-align:top;">:</td><td><div>C:\\Users\\Ignacio\\Desktop\\TFG\\Git\\web2py</div></td></tr><tr><td style="font-weight:bold;vertical-align:top;">is_jython</td><td style="vertical-align:top;">:</td><td><div>False</div></td></tr><tr><td style="font-weight:bold;vertical-align:top;">is_py2</td><td style="vertical-align:top;">:</td><td><div>True</div></td></tr><tr><td style="font-weight:bold;vertical-align:top;">is_pypy</td><td style="vertical-align:top;">:</td><td><div>False</div></td></tr><tr><td style="font-weight:bold;vertical-align:top;">is_source</td><td style="vertical-align:top;">:</td><td><div>True</div></td></tr><tr><td style="font-weight:bold;vertical-align:top;">local_hosts</td><td style="vertical-align:top;">:</td><td><div><table><tr><td><div>fe80::64bf:1f23:8129:d457%10</div></td></tr><tr><td><div>LAPTOP-L4O5O5SF.home</div></td></tr><tr><td><div>LAPTOP-L4O5O5SF</div></td></tr><tr><td><div>192.168.1.103</div></td></tr><tr><td><div>::ffff:127.0.0.1</div></td></tr><tr><td><div>::1</div></td></tr><tr><td><div>2a02:2e02:32c9:8300:c430:1fa5:ce74:2269</div></td></tr><tr><td><div>127.0.0.1</div></td></tr><tr><td><div>2a02:2e02:32c9:8300:64bf:1f23:8129:d457</div></td></tr></table></div></td></tr><tr><td style="font-weight:bold;vertical-align:top;">web2py_version</td><td style="vertical-align:top;">:</td><td><div>2.18.5-stable+timestamp.2019.04.08.04.22.03</div></td></tr></table></div></td></tr><tr><td style="font-weight:bold;vertical-align:top;">is_https</td><td style="vertical-align:top;">:</td><td><div>False</div></td></tr><tr><td style="font-weight:bold;vertical-align:top;">is_local</td><td style="vertical-align:top;">:</td><td><div>True</div></td></tr><tr><td style="font-weight:bold;vertical-align:top;">is_restful</td><td style="vertical-align:top;">:</td><td><div>False</div></td></tr><tr><td style="font-weight:bold;vertical-align:top;">is_scheduler</td><td style="vertical-align:top;">:</td><td><div>False</div></td></tr><tr><td style="font-weight:bold;vertical-align:top;">is_shell</td><td style="vertical-align:top;">:</td><td><div>False</div></td></tr><tr><td style="font-weight:bold;vertical-align:top;">method</td><td style="vertical-align:top;">:</td><td><div>POST</div></td></tr><tr><td style="font-weight:bold;vertical-align:top;">now</td><td style="vertical-align:top;">:</td><td><div>datetime.datetime(2019, 8, 30, 10, 9, 47, 761000)</div></td></tr><tr><td style="font-weight:bold;vertical-align:top;">uri_language</td><td style="vertical-align:top;">:</td><td><div>en</div></td></tr><tr><td style="font-weight:bold;vertical-align:top;">url</td><td style="vertical-align:top;">:</td><td><div>/api/get_tweet</div></td></tr><tr><td style="font-weight:bold;vertical-align:top;">utcnow</td><td style="vertical-align:top;">:</td><td><div>datetime.datetime(2019, 8, 30, 8, 9, 47, 761000)</div></td></tr><tr><td style="font-weight:bold;vertical-align:top;">wsgi</td><td style="vertical-align:top;">:</td><td><div>&lt;gluon.main.LazyWSGI object at 0x000000000A6649B0&gt;</div></td></tr></table></div>'
tRp60
sS'frames'
p61
(lp62
(dp63
S'file'
p64
S'C:\\Users\\Ignacio\\Desktop\\TFG\\Git\\web2py\\gluon\\restricted.py'
p65
sS'dump'
p66
(dp67
S'environment'
p68
S"{'A': <class 'gluon.html.A'>, 'ANY_OF': <class 'pydal.validators.ANY_OF'>, 'ASSIGNJS': <function ASSIGNJS>, 'AppConfig': <function AppConfig>, 'Auth': <class 'gluon.tools.Auth'>, 'B': <class 'gluon.html.B'>, 'BEAUTIFY': <class 'gluon.html.BEAUTIFY'>, 'BODY': <class 'gluon.html.BODY'>, 'BR': <class 'gluon.html.BR'>, 'BUTTON': <class 'gluon.html.BUTTON'>, ...}"
p69
sS'ccode'
p70
S'<code object <module> at 000000000A8B9830, file ...ications\\twitter_api\\controllers/api.py", line 1>'
p71
ssS'lnum'
p72
I219
sS'lines'
p73
(dp74
I214
S'    if environment is None:'
p75
sI215
S'        environment = {}'
p76
sI216
S"    environment['__file__'] = layer"
p77
sI217
S"    environment['__name__'] = '__restricted__'"
p78
sI218
S'    try:'
p79
sI219
S'        exec(ccode, environment)'
p80
sI220
S'    except HTTP:'
p81
sI221
S'        raise'
p82
sI222
S'    except RestrictedError:'
p83
sI223
S'        # do not encapsulate (obfuscate) the original RestrictedError'
p84
ssS'call'
p85
S'(ccode=<code object <module> at 000000000A8B9830, file ...ications\\twitter_api\\controllers/api.py", line 1>, environment={\'A\': <class \'gluon.html.A\'>, \'ANY_OF\': <class \'pydal.validators.ANY_OF\'>, \'ASSIGNJS\': <function ASSIGNJS>, \'AppConfig\': <function AppConfig>, \'Auth\': <class \'gluon.tools.Auth\'>, \'B\': <class \'gluon.html.B\'>, \'BEAUTIFY\': <class \'gluon.html.BEAUTIFY\'>, \'BODY\': <class \'gluon.html.BODY\'>, \'BR\': <class \'gluon.html.BR\'>, \'BUTTON\': <class \'gluon.html.BUTTON\'>, ...}, layer=r\'C:\\Users\\Ignacio\\Desktop\\TFG\\Git\\web2py\\applications\\twitter_api\\controllers/api.py\', scode=<code object <module> at 000000000A8B9830, file ...ications\\twitter_api\\controllers/api.py", line 1>)'
p86
sS'func'
p87
S'restricted'
p88
sa(dp89
g64
S'C:\\Users\\Ignacio\\Desktop\\TFG\\Git\\web2py\\applications\\twitter_api\\controllers\\api.py'
p90
sg66
(dp91
sg72
I290
sg73
(dp92
I288
S'    # db(db.pareja.grupo == None).delete()'
p93
sI279
S'            lista_enfrentamientos.append(enfrentamientos)'
p94
sI280
S'            lista_parejas.append(parejas)'
p95
sI281
S'            counter+=1'
p96
sI282
S'        else:'
p97
sI283
S'            counter+=1'
p98
sI284
S'    max_group = counter - 1'
p99
sI285
S'    return response.json(dict(enfrentamientos = lista_enfrentamientos, parejas = lista_parejas, max_group = max_group))'
p100
sI286
S''
sI287
S'# def delete():'
p101
ssg85
S'()'
p102
sg87
S'<module>'
p103
sa(dp104
g64
S'C:\\Users\\Ignacio\\Desktop\\TFG\\Git\\web2py\\gluon\\globals.py'
p105
sg66
(dp106
S'self'
p107
S'undefined'
p108
sS'f'
S'<function get_tweet>'
p109
ssg72
I421
sg73
(dp110
I416
S"        self.flash = ''            # used by the default view layout"
p111
sI417
S'        self.meta = Storage()      # used by web2py_ajax.html'
p112
sI418
S'        self.menu = []             # used by the default view layout'
p113
sI419
S'        self.files = []            # used by web2py_ajax.html'
p114
sI420
S'        self._vars = None'
p115
sI421
S'        self._caller = lambda f: f()'
p116
sI422
S'        self._view_environment = None'
p117
sI423
S'        self._custom_commit = None'
p118
sI424
S'        self._custom_rollback = None'
p119
sI425
S"        self.generic_patterns = ['*']"
p120
ssg85
S'(f=<function get_tweet>)'
p121
sg87
S'<lambda>'
p122
sa(dp123
g64
S'C:\\Users\\Ignacio\\Desktop\\TFG\\Git\\web2py\\applications\\twitter_api\\controllers\\api.py'
p124
sg66
(dp125
S'global db'
p126
S'<DAL uri="sqlite://storage.sqlite">'
p127
sS'p'
g108
sS'db.jugador'
p128
S'<Table jugador (id, nombre, pagado, regalo, restricciones)>'
p129
sS'db.jugador.id'
p130
S'<pydal.objects.Field object>'
p131
sS'jugador_dos'
p132
g108
ssg72
I87
sg73
(dp133
I82
S'    # print(retweets)'
p134
sI83
S''
sI84
S'    json_results = [result.AsDict() for result in results]'
p135
sI85
S'    print(json_results)'
p136
sI86
S''
sI87
S'    return response.json(dict(tweet=json_results, retweets=retweets))'
p137
sI88
S''
sI89
S''
sI90
S'# ____________________________________________________________________________________'
p138
sI91
S'# Methods for jugadores.html view'
p139
ssg85
S'()'
p140
sg87
S'get_tweet'
p141
sa(dp142
g64
S'C:\\Users\\Ignacio\\Desktop\\TFG\\Git\\web2py\\gluon\\globals.py'
p143
sg66
(dp144
S'default'
p145
S'None'
p146
sS'global custom_json'
p147
S'<function custom_json>'
p148
sS'global json'
p149
S'<function json>'
p150
sS'data'
p151
S'{\'retweets\': [Status(ID=1167343116967432193, ScreenName=None, ...e nuestro f\\xfatbol \\U0001f525 \\xbfCon qu\\u2026\'), Status(ID=1167329343564967937, ScreenName=None, ...e nuestro f\\xfatbol \\U0001f525 \\xbfCon qu\\u2026\'), Status(ID=1167324901864136707, ScreenName=None, ...e nuestro f\\xfatbol \\U0001f525 \\xbfCon qu\\u2026\'), Status(ID=1167321172070977541, ScreenName=None, ...e nuestro f\\xfatbol \\U0001f525 \\xbfCon qu\\u2026\'), Status(ID=1167311611440160768, ScreenName=None, ...e nuestro f\\xfatbol \\U0001f525 \\xbfCon qu\\u2026\'), Status(ID=1167310752820023298, ScreenName=None, ...e nuestro f\\xfatbol \\U0001f525 \\xbfCon qu\\u2026\'), Status(ID=1167301710882033664, ScreenName=None, ...e nuestro f\\xfatbol \\U0001f525 \\xbfCon qu\\u2026\'), Status(ID=1167296373487620098, ScreenName=None, ...e nuestro f\\xfatbol \\U0001f525 \\xbfCon qu\\u2026\'), Status(ID=1167296280432803840, ScreenName=None, ...e nuestro f\\xfatbol \\U0001f525 \\xbfCon qu\\u2026\'), Status(ID=1167295782845706242, ScreenName=None, ...e nuestro f\\xfatbol \\U0001f525 \\xbfCon qu\\u2026\'), Status(ID=1167294101252788224, ScreenName=None, ...e nuestro f\\xfatbol \\U0001f525 \\xbfCon qu\\u2026\'), Status(ID=1167292917284622337, ScreenName=None, ...e nuestro f\\xfatbol \\U0001f525 \\xbfCon qu\\u2026\'), Status(ID=1167290433510285312, ScreenName=None, ...e nuestro f\\xfatbol \\U0001f525 \\xbfCon qu\\u2026\'), Status(ID=1167289499199533056, ScreenName=None, ...e nuestro f\\xfatbol \\U0001f525 \\xbfCon qu\\u2026\'), Status(ID=1167288755004178432, ScreenName=None, ...e nuestro f\\xfatbol \\U0001f525 \\xbfCon qu\\u2026\'), Status(ID=1167286074709725185, ScreenName=None, ...e nuestro f\\xfatbol \\U0001f525 \\xbfCon qu\\u2026\'), Status(ID=1167283713455136770, ScreenName=None, ...e nuestro f\\xfatbol \\U0001f525 \\xbfCon qu\\u2026\'), Status(ID=1167282966281838593, ScreenName=None, ...e nuestro f\\xfatbol \\U0001f525 \\xbfCon qu\\u2026\'), Status(ID=1167282945218027521, ScreenName=None, ...e nuestro f\\xfatbol \\U0001f525 \\xbfCon qu\\u2026\')], \'tweet\': [{u\'created_at\': u\'Thu Aug 29 22:08:34 +0000 2019\', u\'favorite_count\': 663, u\'hashtags\': [], u\'id\': 1167197373870858249L, u\'id_str\': u\'1167197373870858249\', u\'lang\': u\'es\', u\'retweet_count\': 197, u\'source\': u\'<a href="https://mobile.twitter.com" rel="nofollow">Twitter Web App</a>\', u\'text\': u\'Que la titular de @SeMujeresCDMX  diga \\u201cf... la banqueta; como\\u2026 https://t.co/LHv3Du4OhS\', u\'truncated\': True, ...}]}'
p152
sS'indent'
p153
S'None'
p154
ssg72
I697
sg73
(dp155
I692
S'        return self.stream(stream, chunk_size=chunk_size, request=request)'
p156
sI693
S''
sI694
S'    def json(self, data, default=None, indent=None):'
p157
sI695
S"        if 'Content-Type' not in self.headers:"
p158
sI696
S"            self.headers['Content-Type'] = 'application/json'"
p159
sI697
S'        return json(data, default=default or custom_json, indent=indent)'
p160
sI698
S''
sI699
S'    def xmlrpc(self, request, methods):'
p161
sI700
S'        from gluon.xmlrpc import handler'
p162
sI701
S'        """'
p163
ssg85
S'(self=<Storage {\'body\': <cStringIO.StringO object at 0...0000000007B007B8>, \'view\': \'api/get_tweet.html\'}>, data={\'retweets\': [Status(ID=1167343116967432193, ScreenName=None, ...e nuestro f\\xfatbol \\U0001f525 \\xbfCon qu\\u2026\'), Status(ID=1167329343564967937, ScreenName=None, ...e nuestro f\\xfatbol \\U0001f525 \\xbfCon qu\\u2026\'), Status(ID=1167324901864136707, ScreenName=None, ...e nuestro f\\xfatbol \\U0001f525 \\xbfCon qu\\u2026\'), Status(ID=1167321172070977541, ScreenName=None, ...e nuestro f\\xfatbol \\U0001f525 \\xbfCon qu\\u2026\'), Status(ID=1167311611440160768, ScreenName=None, ...e nuestro f\\xfatbol \\U0001f525 \\xbfCon qu\\u2026\'), Status(ID=1167310752820023298, ScreenName=None, ...e nuestro f\\xfatbol \\U0001f525 \\xbfCon qu\\u2026\'), Status(ID=1167301710882033664, ScreenName=None, ...e nuestro f\\xfatbol \\U0001f525 \\xbfCon qu\\u2026\'), Status(ID=1167296373487620098, ScreenName=None, ...e nuestro f\\xfatbol \\U0001f525 \\xbfCon qu\\u2026\'), Status(ID=1167296280432803840, ScreenName=None, ...e nuestro f\\xfatbol \\U0001f525 \\xbfCon qu\\u2026\'), Status(ID=1167295782845706242, ScreenName=None, ...e nuestro f\\xfatbol \\U0001f525 \\xbfCon qu\\u2026\'), Status(ID=1167294101252788224, ScreenName=None, ...e nuestro f\\xfatbol \\U0001f525 \\xbfCon qu\\u2026\'), Status(ID=1167292917284622337, ScreenName=None, ...e nuestro f\\xfatbol \\U0001f525 \\xbfCon qu\\u2026\'), Status(ID=1167290433510285312, ScreenName=None, ...e nuestro f\\xfatbol \\U0001f525 \\xbfCon qu\\u2026\'), Status(ID=1167289499199533056, ScreenName=None, ...e nuestro f\\xfatbol \\U0001f525 \\xbfCon qu\\u2026\'), Status(ID=1167288755004178432, ScreenName=None, ...e nuestro f\\xfatbol \\U0001f525 \\xbfCon qu\\u2026\'), Status(ID=1167286074709725185, ScreenName=None, ...e nuestro f\\xfatbol \\U0001f525 \\xbfCon qu\\u2026\'), Status(ID=1167283713455136770, ScreenName=None, ...e nuestro f\\xfatbol \\U0001f525 \\xbfCon qu\\u2026\'), Status(ID=1167282966281838593, ScreenName=None, ...e nuestro f\\xfatbol \\U0001f525 \\xbfCon qu\\u2026\'), Status(ID=1167282945218027521, ScreenName=None, ...e nuestro f\\xfatbol \\U0001f525 \\xbfCon qu\\u2026\')], \'tweet\': [{u\'created_at\': u\'Thu Aug 29 22:08:34 +0000 2019\', u\'favorite_count\': 663, u\'hashtags\': [], u\'id\': 1167197373870858249L, u\'id_str\': u\'1167197373870858249\', u\'lang\': u\'es\', u\'retweet_count\': 197, u\'source\': u\'<a href="https://mobile.twitter.com" rel="nofollow">Twitter Web App</a>\', u\'text\': u\'Que la titular de @SeMujeresCDMX  diga \\u201cf... la banqueta; como\\u2026 https://t.co/LHv3Du4OhS\', u\'truncated\': True, ...}]}, default=None, indent=None)'
p164
sg87
S'json'
p165
sa(dp166
g64
S'C:\\Users\\Ignacio\\Desktop\\TFG\\Git\\web2py\\gluon\\serializers.py'
p167
sg66
(dp168
S'global json_parser'
p169
S"<module 'json' from 'C:\\Python27\\lib\\json\\__init__.pyc'>"
p170
sS'indent'
p171
S'None'
p172
sS'default'
p173
S'<function custom_json>'
p174
sS'value'
p175
S'{\'retweets\': [Status(ID=1167343116967432193, ScreenName=None, ...e nuestro f\\xfatbol \\U0001f525 \\xbfCon qu\\u2026\'), Status(ID=1167329343564967937, ScreenName=None, ...e nuestro f\\xfatbol \\U0001f525 \\xbfCon qu\\u2026\'), Status(ID=1167324901864136707, ScreenName=None, ...e nuestro f\\xfatbol \\U0001f525 \\xbfCon qu\\u2026\'), Status(ID=1167321172070977541, ScreenName=None, ...e nuestro f\\xfatbol \\U0001f525 \\xbfCon qu\\u2026\'), Status(ID=1167311611440160768, ScreenName=None, ...e nuestro f\\xfatbol \\U0001f525 \\xbfCon qu\\u2026\'), Status(ID=1167310752820023298, ScreenName=None, ...e nuestro f\\xfatbol \\U0001f525 \\xbfCon qu\\u2026\'), Status(ID=1167301710882033664, ScreenName=None, ...e nuestro f\\xfatbol \\U0001f525 \\xbfCon qu\\u2026\'), Status(ID=1167296373487620098, ScreenName=None, ...e nuestro f\\xfatbol \\U0001f525 \\xbfCon qu\\u2026\'), Status(ID=1167296280432803840, ScreenName=None, ...e nuestro f\\xfatbol \\U0001f525 \\xbfCon qu\\u2026\'), Status(ID=1167295782845706242, ScreenName=None, ...e nuestro f\\xfatbol \\U0001f525 \\xbfCon qu\\u2026\'), Status(ID=1167294101252788224, ScreenName=None, ...e nuestro f\\xfatbol \\U0001f525 \\xbfCon qu\\u2026\'), Status(ID=1167292917284622337, ScreenName=None, ...e nuestro f\\xfatbol \\U0001f525 \\xbfCon qu\\u2026\'), Status(ID=1167290433510285312, ScreenName=None, ...e nuestro f\\xfatbol \\U0001f525 \\xbfCon qu\\u2026\'), Status(ID=1167289499199533056, ScreenName=None, ...e nuestro f\\xfatbol \\U0001f525 \\xbfCon qu\\u2026\'), Status(ID=1167288755004178432, ScreenName=None, ...e nuestro f\\xfatbol \\U0001f525 \\xbfCon qu\\u2026\'), Status(ID=1167286074709725185, ScreenName=None, ...e nuestro f\\xfatbol \\U0001f525 \\xbfCon qu\\u2026\'), Status(ID=1167283713455136770, ScreenName=None, ...e nuestro f\\xfatbol \\U0001f525 \\xbfCon qu\\u2026\'), Status(ID=1167282966281838593, ScreenName=None, ...e nuestro f\\xfatbol \\U0001f525 \\xbfCon qu\\u2026\'), Status(ID=1167282945218027521, ScreenName=None, ...e nuestro f\\xfatbol \\U0001f525 \\xbfCon qu\\u2026\')], \'tweet\': [{u\'created_at\': u\'Thu Aug 29 22:08:34 +0000 2019\', u\'favorite_count\': 663, u\'hashtags\': [], u\'id\': 1167197373870858249L, u\'id_str\': u\'1167197373870858249\', u\'lang\': u\'es\', u\'retweet_count\': 197, u\'source\': u\'<a href="https://mobile.twitter.com" rel="nofollow">Twitter Web App</a>\', u\'text\': u\'Que la titular de @SeMujeresCDMX  diga \\u201cf... la banqueta; como\\u2026 https://t.co/LHv3Du4OhS\', u\'truncated\': True, ...}]}'
p176
sS'json_parser.dumps'
p177
S'<function dumps>'
p178
sS'sort_keys'
p179
S'False'
p180
ssg72
I123
sg73
(dp181
I118
S"def xml(value, encoding='UTF-8', key='document', quote=True):"
p182
sI119
S'    return (\'<?xml version="1.0" encoding="%s"?>\' % encoding) + str(xml_rec(value, key, quote))'
p183
sI120
S''
sI121
S''
sI122
S'def json(value, default=custom_json, indent=None, sort_keys=False):'
p184
sI123
S'    value = json_parser.dumps(value, default=default, sort_keys=sort_keys, indent=indent)'
p185
sI124
S'    # replace JavaScript incompatible spacing'
p186
sI125
S'    # http://timelessrepo.com/json-isnt-a-javascript-subset'
p187
sI126
S'    # PY3 FIXME'
p188
sI127
S"    # return value.replace(ur'\\u2028', '\\\\u2028').replace(ur'\\2029', '\\\\u2029')"
p189
ssg85
S'(value={\'retweets\': [Status(ID=1167343116967432193, ScreenName=None, ...e nuestro f\\xfatbol \\U0001f525 \\xbfCon qu\\u2026\'), Status(ID=1167329343564967937, ScreenName=None, ...e nuestro f\\xfatbol \\U0001f525 \\xbfCon qu\\u2026\'), Status(ID=1167324901864136707, ScreenName=None, ...e nuestro f\\xfatbol \\U0001f525 \\xbfCon qu\\u2026\'), Status(ID=1167321172070977541, ScreenName=None, ...e nuestro f\\xfatbol \\U0001f525 \\xbfCon qu\\u2026\'), Status(ID=1167311611440160768, ScreenName=None, ...e nuestro f\\xfatbol \\U0001f525 \\xbfCon qu\\u2026\'), Status(ID=1167310752820023298, ScreenName=None, ...e nuestro f\\xfatbol \\U0001f525 \\xbfCon qu\\u2026\'), Status(ID=1167301710882033664, ScreenName=None, ...e nuestro f\\xfatbol \\U0001f525 \\xbfCon qu\\u2026\'), Status(ID=1167296373487620098, ScreenName=None, ...e nuestro f\\xfatbol \\U0001f525 \\xbfCon qu\\u2026\'), Status(ID=1167296280432803840, ScreenName=None, ...e nuestro f\\xfatbol \\U0001f525 \\xbfCon qu\\u2026\'), Status(ID=1167295782845706242, ScreenName=None, ...e nuestro f\\xfatbol \\U0001f525 \\xbfCon qu\\u2026\'), Status(ID=1167294101252788224, ScreenName=None, ...e nuestro f\\xfatbol \\U0001f525 \\xbfCon qu\\u2026\'), Status(ID=1167292917284622337, ScreenName=None, ...e nuestro f\\xfatbol \\U0001f525 \\xbfCon qu\\u2026\'), Status(ID=1167290433510285312, ScreenName=None, ...e nuestro f\\xfatbol \\U0001f525 \\xbfCon qu\\u2026\'), Status(ID=1167289499199533056, ScreenName=None, ...e nuestro f\\xfatbol \\U0001f525 \\xbfCon qu\\u2026\'), Status(ID=1167288755004178432, ScreenName=None, ...e nuestro f\\xfatbol \\U0001f525 \\xbfCon qu\\u2026\'), Status(ID=1167286074709725185, ScreenName=None, ...e nuestro f\\xfatbol \\U0001f525 \\xbfCon qu\\u2026\'), Status(ID=1167283713455136770, ScreenName=None, ...e nuestro f\\xfatbol \\U0001f525 \\xbfCon qu\\u2026\'), Status(ID=1167282966281838593, ScreenName=None, ...e nuestro f\\xfatbol \\U0001f525 \\xbfCon qu\\u2026\'), Status(ID=1167282945218027521, ScreenName=None, ...e nuestro f\\xfatbol \\U0001f525 \\xbfCon qu\\u2026\')], \'tweet\': [{u\'created_at\': u\'Thu Aug 29 22:08:34 +0000 2019\', u\'favorite_count\': 663, u\'hashtags\': [], u\'id\': 1167197373870858249L, u\'id_str\': u\'1167197373870858249\', u\'lang\': u\'es\', u\'retweet_count\': 197, u\'source\': u\'<a href="https://mobile.twitter.com" rel="nofollow">Twitter Web App</a>\', u\'text\': u\'Que la titular de @SeMujeresCDMX  diga \\u201cf... la banqueta; como\\u2026 https://t.co/LHv3Du4OhS\', u\'truncated\': True, ...}]}, default=<function custom_json>, indent=None, sort_keys=False)'
p190
sg87
g165
sa(dp191
g64
S'C:\\Python27\\lib\\json\\__init__.py'
p192
sg66
(dp193
S'obj'
p194
S'{\'retweets\': [Status(ID=1167343116967432193, ScreenName=None, ...e nuestro f\\xfatbol \\U0001f525 \\xbfCon qu\\u2026\'), Status(ID=1167329343564967937, ScreenName=None, ...e nuestro f\\xfatbol \\U0001f525 \\xbfCon qu\\u2026\'), Status(ID=1167324901864136707, ScreenName=None, ...e nuestro f\\xfatbol \\U0001f525 \\xbfCon qu\\u2026\'), Status(ID=1167321172070977541, ScreenName=None, ...e nuestro f\\xfatbol \\U0001f525 \\xbfCon qu\\u2026\'), Status(ID=1167311611440160768, ScreenName=None, ...e nuestro f\\xfatbol \\U0001f525 \\xbfCon qu\\u2026\'), Status(ID=1167310752820023298, ScreenName=None, ...e nuestro f\\xfatbol \\U0001f525 \\xbfCon qu\\u2026\'), Status(ID=1167301710882033664, ScreenName=None, ...e nuestro f\\xfatbol \\U0001f525 \\xbfCon qu\\u2026\'), Status(ID=1167296373487620098, ScreenName=None, ...e nuestro f\\xfatbol \\U0001f525 \\xbfCon qu\\u2026\'), Status(ID=1167296280432803840, ScreenName=None, ...e nuestro f\\xfatbol \\U0001f525 \\xbfCon qu\\u2026\'), Status(ID=1167295782845706242, ScreenName=None, ...e nuestro f\\xfatbol \\U0001f525 \\xbfCon qu\\u2026\'), Status(ID=1167294101252788224, ScreenName=None, ...e nuestro f\\xfatbol \\U0001f525 \\xbfCon qu\\u2026\'), Status(ID=1167292917284622337, ScreenName=None, ...e nuestro f\\xfatbol \\U0001f525 \\xbfCon qu\\u2026\'), Status(ID=1167290433510285312, ScreenName=None, ...e nuestro f\\xfatbol \\U0001f525 \\xbfCon qu\\u2026\'), Status(ID=1167289499199533056, ScreenName=None, ...e nuestro f\\xfatbol \\U0001f525 \\xbfCon qu\\u2026\'), Status(ID=1167288755004178432, ScreenName=None, ...e nuestro f\\xfatbol \\U0001f525 \\xbfCon qu\\u2026\'), Status(ID=1167286074709725185, ScreenName=None, ...e nuestro f\\xfatbol \\U0001f525 \\xbfCon qu\\u2026\'), Status(ID=1167283713455136770, ScreenName=None, ...e nuestro f\\xfatbol \\U0001f525 \\xbfCon qu\\u2026\'), Status(ID=1167282966281838593, ScreenName=None, ...e nuestro f\\xfatbol \\U0001f525 \\xbfCon qu\\u2026\'), Status(ID=1167282945218027521, ScreenName=None, ...e nuestro f\\xfatbol \\U0001f525 \\xbfCon qu\\u2026\')], \'tweet\': [{u\'created_at\': u\'Thu Aug 29 22:08:34 +0000 2019\', u\'favorite_count\': 663, u\'hashtags\': [], u\'id\': 1167197373870858249L, u\'id_str\': u\'1167197373870858249\', u\'lang\': u\'es\', u\'retweet_count\': 197, u\'source\': u\'<a href="https://mobile.twitter.com" rel="nofollow">Twitter Web App</a>\', u\'text\': u\'Que la titular de @SeMujeresCDMX  diga \\u201cf... la banqueta; como\\u2026 https://t.co/LHv3Du4OhS\', u\'truncated\': True, ...}]}'
p195
sS'sort_keys'
p196
g180
sS'kw'
p197
g19
sS').encode'
p198
g108
ssg72
I250
sg73
(dp199
I245
S'        cls = JSONEncoder'
p200
sI246
S'    return cls('
p201
sI247
S'        skipkeys=skipkeys, ensure_ascii=ensure_ascii,'
p202
sI248
S'        check_circular=check_circular, allow_nan=allow_nan, indent=indent,'
p203
sI249
S'        separators=separators, encoding=encoding, default=default,'
p204
sI250
S'        sort_keys=sort_keys, **kw).encode(obj)'
p205
sI251
S''
sI252
S''
sI253
S'_default_decoder = JSONDecoder(encoding=None, object_hook=None,'
p206
sI254
S'                               object_pairs_hook=None)'
p207
ssg85
S'(obj={\'retweets\': [Status(ID=1167343116967432193, ScreenName=None, ...e nuestro f\\xfatbol \\U0001f525 \\xbfCon qu\\u2026\'), Status(ID=1167329343564967937, ScreenName=None, ...e nuestro f\\xfatbol \\U0001f525 \\xbfCon qu\\u2026\'), Status(ID=1167324901864136707, ScreenName=None, ...e nuestro f\\xfatbol \\U0001f525 \\xbfCon qu\\u2026\'), Status(ID=1167321172070977541, ScreenName=None, ...e nuestro f\\xfatbol \\U0001f525 \\xbfCon qu\\u2026\'), Status(ID=1167311611440160768, ScreenName=None, ...e nuestro f\\xfatbol \\U0001f525 \\xbfCon qu\\u2026\'), Status(ID=1167310752820023298, ScreenName=None, ...e nuestro f\\xfatbol \\U0001f525 \\xbfCon qu\\u2026\'), Status(ID=1167301710882033664, ScreenName=None, ...e nuestro f\\xfatbol \\U0001f525 \\xbfCon qu\\u2026\'), Status(ID=1167296373487620098, ScreenName=None, ...e nuestro f\\xfatbol \\U0001f525 \\xbfCon qu\\u2026\'), Status(ID=1167296280432803840, ScreenName=None, ...e nuestro f\\xfatbol \\U0001f525 \\xbfCon qu\\u2026\'), Status(ID=1167295782845706242, ScreenName=None, ...e nuestro f\\xfatbol \\U0001f525 \\xbfCon qu\\u2026\'), Status(ID=1167294101252788224, ScreenName=None, ...e nuestro f\\xfatbol \\U0001f525 \\xbfCon qu\\u2026\'), Status(ID=1167292917284622337, ScreenName=None, ...e nuestro f\\xfatbol \\U0001f525 \\xbfCon qu\\u2026\'), Status(ID=1167290433510285312, ScreenName=None, ...e nuestro f\\xfatbol \\U0001f525 \\xbfCon qu\\u2026\'), Status(ID=1167289499199533056, ScreenName=None, ...e nuestro f\\xfatbol \\U0001f525 \\xbfCon qu\\u2026\'), Status(ID=1167288755004178432, ScreenName=None, ...e nuestro f\\xfatbol \\U0001f525 \\xbfCon qu\\u2026\'), Status(ID=1167286074709725185, ScreenName=None, ...e nuestro f\\xfatbol \\U0001f525 \\xbfCon qu\\u2026\'), Status(ID=1167283713455136770, ScreenName=None, ...e nuestro f\\xfatbol \\U0001f525 \\xbfCon qu\\u2026\'), Status(ID=1167282966281838593, ScreenName=None, ...e nuestro f\\xfatbol \\U0001f525 \\xbfCon qu\\u2026\'), Status(ID=1167282945218027521, ScreenName=None, ...e nuestro f\\xfatbol \\U0001f525 \\xbfCon qu\\u2026\')], \'tweet\': [{u\'created_at\': u\'Thu Aug 29 22:08:34 +0000 2019\', u\'favorite_count\': 663, u\'hashtags\': [], u\'id\': 1167197373870858249L, u\'id_str\': u\'1167197373870858249\', u\'lang\': u\'es\', u\'retweet_count\': 197, u\'source\': u\'<a href="https://mobile.twitter.com" rel="nofollow">Twitter Web App</a>\', u\'text\': u\'Que la titular de @SeMujeresCDMX  diga \\u201cf... la banqueta; como\\u2026 https://t.co/LHv3Du4OhS\', u\'truncated\': True, ...}]}, skipkeys=False, ensure_ascii=True, check_circular=True, allow_nan=True, cls=<class \'json.encoder.JSONEncoder\'>, indent=None, separators=None, encoding=\'utf-8\', default=<function custom_json>, sort_keys=False, **kw={})'
p208
sg87
S'dumps'
p209
sa(dp210
g64
S'C:\\Python27\\lib\\json\\encoder.py'
p211
sg66
(dp212
S'self'
p213
S'<json.encoder.JSONEncoder object>'
p214
sS'o'
S'{\'retweets\': [Status(ID=1167343116967432193, ScreenName=None, ...e nuestro f\\xfatbol \\U0001f525 \\xbfCon qu\\u2026\'), Status(ID=1167329343564967937, ScreenName=None, ...e nuestro f\\xfatbol \\U0001f525 \\xbfCon qu\\u2026\'), Status(ID=1167324901864136707, ScreenName=None, ...e nuestro f\\xfatbol \\U0001f525 \\xbfCon qu\\u2026\'), Status(ID=1167321172070977541, ScreenName=None, ...e nuestro f\\xfatbol \\U0001f525 \\xbfCon qu\\u2026\'), Status(ID=1167311611440160768, ScreenName=None, ...e nuestro f\\xfatbol \\U0001f525 \\xbfCon qu\\u2026\'), Status(ID=1167310752820023298, ScreenName=None, ...e nuestro f\\xfatbol \\U0001f525 \\xbfCon qu\\u2026\'), Status(ID=1167301710882033664, ScreenName=None, ...e nuestro f\\xfatbol \\U0001f525 \\xbfCon qu\\u2026\'), Status(ID=1167296373487620098, ScreenName=None, ...e nuestro f\\xfatbol \\U0001f525 \\xbfCon qu\\u2026\'), Status(ID=1167296280432803840, ScreenName=None, ...e nuestro f\\xfatbol \\U0001f525 \\xbfCon qu\\u2026\'), Status(ID=1167295782845706242, ScreenName=None, ...e nuestro f\\xfatbol \\U0001f525 \\xbfCon qu\\u2026\'), Status(ID=1167294101252788224, ScreenName=None, ...e nuestro f\\xfatbol \\U0001f525 \\xbfCon qu\\u2026\'), Status(ID=1167292917284622337, ScreenName=None, ...e nuestro f\\xfatbol \\U0001f525 \\xbfCon qu\\u2026\'), Status(ID=1167290433510285312, ScreenName=None, ...e nuestro f\\xfatbol \\U0001f525 \\xbfCon qu\\u2026\'), Status(ID=1167289499199533056, ScreenName=None, ...e nuestro f\\xfatbol \\U0001f525 \\xbfCon qu\\u2026\'), Status(ID=1167288755004178432, ScreenName=None, ...e nuestro f\\xfatbol \\U0001f525 \\xbfCon qu\\u2026\'), Status(ID=1167286074709725185, ScreenName=None, ...e nuestro f\\xfatbol \\U0001f525 \\xbfCon qu\\u2026\'), Status(ID=1167283713455136770, ScreenName=None, ...e nuestro f\\xfatbol \\U0001f525 \\xbfCon qu\\u2026\'), Status(ID=1167282966281838593, ScreenName=None, ...e nuestro f\\xfatbol \\U0001f525 \\xbfCon qu\\u2026\'), Status(ID=1167282945218027521, ScreenName=None, ...e nuestro f\\xfatbol \\U0001f525 \\xbfCon qu\\u2026\')], \'tweet\': [{u\'created_at\': u\'Thu Aug 29 22:08:34 +0000 2019\', u\'favorite_count\': 663, u\'hashtags\': [], u\'id\': 1167197373870858249L, u\'id_str\': u\'1167197373870858249\', u\'lang\': u\'es\', u\'retweet_count\': 197, u\'source\': u\'<a href="https://mobile.twitter.com" rel="nofollow">Twitter Web App</a>\', u\'text\': u\'Que la titular de @SeMujeresCDMX  diga \\u201cf... la banqueta; como\\u2026 https://t.co/LHv3Du4OhS\', u\'truncated\': True, ...}]}'
p215
sS'self.iterencode'
p216
S'<bound method JSONEncoder.iterencode of <json.encoder.JSONEncoder object>>'
p217
sS'_one_shot'
p218
g108
sS'chunks'
p219
g108
sS'builtinTrue'
p220
S'True'
p221
ssg72
I207
sg73
(dp222
I202
S'            else:'
p223
sI203
S'                return encode_basestring(o)'
p224
sI204
S"        # This doesn't pass the iterator directly to ''.join() because the"
p225
sI205
S"        # exceptions aren't as detailed.  The list call should be roughly"
p226
sI206
S"        # equivalent to the PySequence_Fast that ''.join() would do."
p227
sI207
S'        chunks = self.iterencode(o, _one_shot=True)'
p228
sI208
S'        if not isinstance(chunks, (list, tuple)):'
p229
sI209
S'            chunks = list(chunks)'
p230
sI210
S"        return ''.join(chunks)"
p231
sI211
S''
ssg85
S'(self=<json.encoder.JSONEncoder object>, o={\'retweets\': [Status(ID=1167343116967432193, ScreenName=None, ...e nuestro f\\xfatbol \\U0001f525 \\xbfCon qu\\u2026\'), Status(ID=1167329343564967937, ScreenName=None, ...e nuestro f\\xfatbol \\U0001f525 \\xbfCon qu\\u2026\'), Status(ID=1167324901864136707, ScreenName=None, ...e nuestro f\\xfatbol \\U0001f525 \\xbfCon qu\\u2026\'), Status(ID=1167321172070977541, ScreenName=None, ...e nuestro f\\xfatbol \\U0001f525 \\xbfCon qu\\u2026\'), Status(ID=1167311611440160768, ScreenName=None, ...e nuestro f\\xfatbol \\U0001f525 \\xbfCon qu\\u2026\'), Status(ID=1167310752820023298, ScreenName=None, ...e nuestro f\\xfatbol \\U0001f525 \\xbfCon qu\\u2026\'), Status(ID=1167301710882033664, ScreenName=None, ...e nuestro f\\xfatbol \\U0001f525 \\xbfCon qu\\u2026\'), Status(ID=1167296373487620098, ScreenName=None, ...e nuestro f\\xfatbol \\U0001f525 \\xbfCon qu\\u2026\'), Status(ID=1167296280432803840, ScreenName=None, ...e nuestro f\\xfatbol \\U0001f525 \\xbfCon qu\\u2026\'), Status(ID=1167295782845706242, ScreenName=None, ...e nuestro f\\xfatbol \\U0001f525 \\xbfCon qu\\u2026\'), Status(ID=1167294101252788224, ScreenName=None, ...e nuestro f\\xfatbol \\U0001f525 \\xbfCon qu\\u2026\'), Status(ID=1167292917284622337, ScreenName=None, ...e nuestro f\\xfatbol \\U0001f525 \\xbfCon qu\\u2026\'), Status(ID=1167290433510285312, ScreenName=None, ...e nuestro f\\xfatbol \\U0001f525 \\xbfCon qu\\u2026\'), Status(ID=1167289499199533056, ScreenName=None, ...e nuestro f\\xfatbol \\U0001f525 \\xbfCon qu\\u2026\'), Status(ID=1167288755004178432, ScreenName=None, ...e nuestro f\\xfatbol \\U0001f525 \\xbfCon qu\\u2026\'), Status(ID=1167286074709725185, ScreenName=None, ...e nuestro f\\xfatbol \\U0001f525 \\xbfCon qu\\u2026\'), Status(ID=1167283713455136770, ScreenName=None, ...e nuestro f\\xfatbol \\U0001f525 \\xbfCon qu\\u2026\'), Status(ID=1167282966281838593, ScreenName=None, ...e nuestro f\\xfatbol \\U0001f525 \\xbfCon qu\\u2026\'), Status(ID=1167282945218027521, ScreenName=None, ...e nuestro f\\xfatbol \\U0001f525 \\xbfCon qu\\u2026\')], \'tweet\': [{u\'created_at\': u\'Thu Aug 29 22:08:34 +0000 2019\', u\'favorite_count\': 663, u\'hashtags\': [], u\'id\': 1167197373870858249L, u\'id_str\': u\'1167197373870858249\', u\'lang\': u\'es\', u\'retweet_count\': 197, u\'source\': u\'<a href="https://mobile.twitter.com" rel="nofollow">Twitter Web App</a>\', u\'text\': u\'Que la titular de @SeMujeresCDMX  diga \\u201cf... la banqueta; como\\u2026 https://t.co/LHv3Du4OhS\', u\'truncated\': True, ...}]})'
p232
sg87
S'encode'
p233
sa(dp234
g64
S'C:\\Python27\\lib\\json\\encoder.py'
p235
sg66
(dp236
S'_iterencode'
p237
S'<_json.Encoder object>'
p238
sS'o'
S'{\'retweets\': [Status(ID=1167343116967432193, ScreenName=None, ...e nuestro f\\xfatbol \\U0001f525 \\xbfCon qu\\u2026\'), Status(ID=1167329343564967937, ScreenName=None, ...e nuestro f\\xfatbol \\U0001f525 \\xbfCon qu\\u2026\'), Status(ID=1167324901864136707, ScreenName=None, ...e nuestro f\\xfatbol \\U0001f525 \\xbfCon qu\\u2026\'), Status(ID=1167321172070977541, ScreenName=None, ...e nuestro f\\xfatbol \\U0001f525 \\xbfCon qu\\u2026\'), Status(ID=1167311611440160768, ScreenName=None, ...e nuestro f\\xfatbol \\U0001f525 \\xbfCon qu\\u2026\'), Status(ID=1167310752820023298, ScreenName=None, ...e nuestro f\\xfatbol \\U0001f525 \\xbfCon qu\\u2026\'), Status(ID=1167301710882033664, ScreenName=None, ...e nuestro f\\xfatbol \\U0001f525 \\xbfCon qu\\u2026\'), Status(ID=1167296373487620098, ScreenName=None, ...e nuestro f\\xfatbol \\U0001f525 \\xbfCon qu\\u2026\'), Status(ID=1167296280432803840, ScreenName=None, ...e nuestro f\\xfatbol \\U0001f525 \\xbfCon qu\\u2026\'), Status(ID=1167295782845706242, ScreenName=None, ...e nuestro f\\xfatbol \\U0001f525 \\xbfCon qu\\u2026\'), Status(ID=1167294101252788224, ScreenName=None, ...e nuestro f\\xfatbol \\U0001f525 \\xbfCon qu\\u2026\'), Status(ID=1167292917284622337, ScreenName=None, ...e nuestro f\\xfatbol \\U0001f525 \\xbfCon qu\\u2026\'), Status(ID=1167290433510285312, ScreenName=None, ...e nuestro f\\xfatbol \\U0001f525 \\xbfCon qu\\u2026\'), Status(ID=1167289499199533056, ScreenName=None, ...e nuestro f\\xfatbol \\U0001f525 \\xbfCon qu\\u2026\'), Status(ID=1167288755004178432, ScreenName=None, ...e nuestro f\\xfatbol \\U0001f525 \\xbfCon qu\\u2026\'), Status(ID=1167286074709725185, ScreenName=None, ...e nuestro f\\xfatbol \\U0001f525 \\xbfCon qu\\u2026\'), Status(ID=1167283713455136770, ScreenName=None, ...e nuestro f\\xfatbol \\U0001f525 \\xbfCon qu\\u2026\'), Status(ID=1167282966281838593, ScreenName=None, ...e nuestro f\\xfatbol \\U0001f525 \\xbfCon qu\\u2026\'), Status(ID=1167282945218027521, ScreenName=None, ...e nuestro f\\xfatbol \\U0001f525 \\xbfCon qu\\u2026\')], \'tweet\': [{u\'created_at\': u\'Thu Aug 29 22:08:34 +0000 2019\', u\'favorite_count\': 663, u\'hashtags\': [], u\'id\': 1167197373870858249L, u\'id_str\': u\'1167197373870858249\', u\'lang\': u\'es\', u\'retweet_count\': 197, u\'source\': u\'<a href="https://mobile.twitter.com" rel="nofollow">Twitter Web App</a>\', u\'text\': u\'Que la titular de @SeMujeresCDMX  diga \\u201cf... la banqueta; como\\u2026 https://t.co/LHv3Du4OhS\', u\'truncated\': True, ...}]}'
p239
ssg72
I270
sg73
(dp240
I265
S'        else:'
p241
sI266
S'            _iterencode = _make_iterencode('
p242
sI267
S'                markers, self.default, _encoder, self.indent, floatstr,'
p243
sI268
S'                self.key_separator, self.item_separator, self.sort_keys,'
p244
sI269
S'                self.skipkeys, _one_shot)'
p245
sI270
S'        return _iterencode(o, 0)'
p246
sI271
S''
sI272
S'def _make_iterencode(markers, _default, _encoder, _indent, _floatstr,'
p247
sI273
S'        _key_separator, _item_separator, _sort_keys, _skipkeys, _one_shot,'
p248
sI274
S'        ## HACK: hand-optimized bytecode; turn globals into locals'
p249
ssg85
S'(self=<json.encoder.JSONEncoder object>, o={\'retweets\': [Status(ID=1167343116967432193, ScreenName=None, ...e nuestro f\\xfatbol \\U0001f525 \\xbfCon qu\\u2026\'), Status(ID=1167329343564967937, ScreenName=None, ...e nuestro f\\xfatbol \\U0001f525 \\xbfCon qu\\u2026\'), Status(ID=1167324901864136707, ScreenName=None, ...e nuestro f\\xfatbol \\U0001f525 \\xbfCon qu\\u2026\'), Status(ID=1167321172070977541, ScreenName=None, ...e nuestro f\\xfatbol \\U0001f525 \\xbfCon qu\\u2026\'), Status(ID=1167311611440160768, ScreenName=None, ...e nuestro f\\xfatbol \\U0001f525 \\xbfCon qu\\u2026\'), Status(ID=1167310752820023298, ScreenName=None, ...e nuestro f\\xfatbol \\U0001f525 \\xbfCon qu\\u2026\'), Status(ID=1167301710882033664, ScreenName=None, ...e nuestro f\\xfatbol \\U0001f525 \\xbfCon qu\\u2026\'), Status(ID=1167296373487620098, ScreenName=None, ...e nuestro f\\xfatbol \\U0001f525 \\xbfCon qu\\u2026\'), Status(ID=1167296280432803840, ScreenName=None, ...e nuestro f\\xfatbol \\U0001f525 \\xbfCon qu\\u2026\'), Status(ID=1167295782845706242, ScreenName=None, ...e nuestro f\\xfatbol \\U0001f525 \\xbfCon qu\\u2026\'), Status(ID=1167294101252788224, ScreenName=None, ...e nuestro f\\xfatbol \\U0001f525 \\xbfCon qu\\u2026\'), Status(ID=1167292917284622337, ScreenName=None, ...e nuestro f\\xfatbol \\U0001f525 \\xbfCon qu\\u2026\'), Status(ID=1167290433510285312, ScreenName=None, ...e nuestro f\\xfatbol \\U0001f525 \\xbfCon qu\\u2026\'), Status(ID=1167289499199533056, ScreenName=None, ...e nuestro f\\xfatbol \\U0001f525 \\xbfCon qu\\u2026\'), Status(ID=1167288755004178432, ScreenName=None, ...e nuestro f\\xfatbol \\U0001f525 \\xbfCon qu\\u2026\'), Status(ID=1167286074709725185, ScreenName=None, ...e nuestro f\\xfatbol \\U0001f525 \\xbfCon qu\\u2026\'), Status(ID=1167283713455136770, ScreenName=None, ...e nuestro f\\xfatbol \\U0001f525 \\xbfCon qu\\u2026\'), Status(ID=1167282966281838593, ScreenName=None, ...e nuestro f\\xfatbol \\U0001f525 \\xbfCon qu\\u2026\'), Status(ID=1167282945218027521, ScreenName=None, ...e nuestro f\\xfatbol \\U0001f525 \\xbfCon qu\\u2026\')], \'tweet\': [{u\'created_at\': u\'Thu Aug 29 22:08:34 +0000 2019\', u\'favorite_count\': 663, u\'hashtags\': [], u\'id\': 1167197373870858249L, u\'id_str\': u\'1167197373870858249\', u\'lang\': u\'es\', u\'retweet_count\': 197, u\'source\': u\'<a href="https://mobile.twitter.com" rel="nofollow">Twitter Web App</a>\', u\'text\': u\'Que la titular de @SeMujeresCDMX  diga \\u201cf... la banqueta; como\\u2026 https://t.co/LHv3Du4OhS\', u\'truncated\': True, ...}]}, _one_shot=True)'
p250
sg87
S'iterencode'
p251
sa(dp252
g64
S'C:\\Users\\Ignacio\\Desktop\\TFG\\Git\\web2py\\gluon\\serializers.py'
p253
sg66
(dp254
S'builtinrepr'
p255
S'<built-in function repr>'
p256
sS'builtinTypeError'
p257
S"<type 'exceptions.TypeError'>"
p258
sS'o'
S"Status(ID=1167343116967432193, ScreenName=None, ...e nuestro f\\xfatbol \\U0001f525 \\xbfCon qu\\u2026')"
p259
ssg72
I99
sg73
(dp260
I96
S"    elif hasattr(o, 'as_dict') and callable(o.as_dict):"
p261
sI97
S'        return o.as_dict()'
p262
sI98
S'    else:'
p263
sI99
S'        raise TypeError(repr(o) + " is not JSON serializable")'
p264
sI100
S''
sI101
S''
sI102
S'def xml_rec(value, key, quote=True):'
p265
sI103
S"    if hasattr(value, 'custom_xml') and callable(value.custom_xml):"
p266
sI94
S"    elif hasattr(o, 'as_list') and callable(o.as_list):"
p267
sI95
S'        return o.as_list()'
p268
ssg85
S"(o=Status(ID=1167343116967432193, ScreenName=None, ...e nuestro f\\xfatbol \\U0001f525 \\xbfCon qu\\u2026'))"
p269
sg87
S'custom_json'
p270
sasS'pyver'
p271
S'Python 2.7.10: C:\\Python27\\python.exe (prefix: C:\\Python27)'
p272
sS'session'
p273
g59
(S's\x1a\x00\x00\x00<div><table></table></div>'
tRp274
sS'etype'
p275
S"<type 'exceptions.TypeError'>"
p276
sS'date'
p277
S'Fri Aug 30 10:09:48 2019'
p278
sS'response'
p279
g59
(S's\xa3\x1f\x00\x00<div><table><tr><td style="font-weight:bold;vertical-align:top;">body</td><td style="vertical-align:top;">:</td><td><div>&lt;cStringIO.StringO object at 0x0000000007C677D8&gt;</div></td></tr><tr><td style="font-weight:bold;vertical-align:top;">cookies</td><td style="vertical-align:top;">:</td><td><div><table><tr><td style="font-weight:bold;vertical-align:top;">session_id_twitter_api</td><td style="vertical-align:top;">:</td><td><div>127.0.0.1-9be4df41-a8e0-4769-92f4-5bda7674f675<table><tr><td style="font-weight:bold;vertical-align:top;">comment</td><td style="vertical-align:top;">:</td><td><div></div></td></tr><tr><td style="font-weight:bold;vertical-align:top;">domain</td><td style="vertical-align:top;">:</td><td><div></div></td></tr><tr><td style="font-weight:bold;vertical-align:top;">expires</td><td style="vertical-align:top;">:</td><td><div></div></td></tr><tr><td style="font-weight:bold;vertical-align:top;">httponly</td><td style="vertical-align:top;">:</td><td><div></div></td></tr><tr><td style="font-weight:bold;vertical-align:top;">max-age</td><td style="vertical-align:top;">:</td><td><div></div></td></tr><tr><td style="font-weight:bold;vertical-align:top;">path</td><td style="vertical-align:top;">:</td><td><div>/</div></td></tr><tr><td style="font-weight:bold;vertical-align:top;">samesite</td><td style="vertical-align:top;">:</td><td><div></div></td></tr><tr><td style="font-weight:bold;vertical-align:top;">secure</td><td style="vertical-align:top;">:</td><td><div></div></td></tr><tr><td style="font-weight:bold;vertical-align:top;">version</td><td style="vertical-align:top;">:</td><td><div></div></td></tr></table></div></td></tr></table></div></td></tr><tr><td style="font-weight:bold;vertical-align:top;">delimiters</td><td style="vertical-align:top;">:</td><td><div><table><tr><td><div>{{</div></td></tr><tr><td><div>}}</div></td></tr></table></div></td></tr><tr><td style="font-weight:bold;vertical-align:top;">files</td><td style="vertical-align:top;">:</td><td><div><table></table></div></td></tr><tr><td style="font-weight:bold;vertical-align:top;">flash</td><td style="vertical-align:top;">:</td><td><div></div></td></tr><tr><td style="font-weight:bold;vertical-align:top;">form_label_separator</td><td style="vertical-align:top;">:</td><td><div></div></td></tr><tr><td style="font-weight:bold;vertical-align:top;">formstyle</td><td style="vertical-align:top;">:</td><td><div>bootstrap4_inline</div></td></tr><tr><td style="font-weight:bold;vertical-align:top;">generic_patterns</td><td style="vertical-align:top;">:</td><td><div><table><tr><td><div>*</div></td></tr></table></div></td></tr><tr><td style="font-weight:bold;vertical-align:top;">google_analytics_id</td><td style="vertical-align:top;">:</td><td><div>None</div></td></tr><tr><td style="font-weight:bold;vertical-align:top;">headers</td><td style="vertical-align:top;">:</td><td><div><table><tr><td style="font-weight:bold;vertical-align:top;">Content-Type</td><td style="vertical-align:top;">:</td><td><div>application/json</div></td></tr><tr><td style="font-weight:bold;vertical-align:top;">X-Powered-By</td><td style="vertical-align:top;">:</td><td><div>web2py</div></td></tr></table></div></td></tr><tr><td style="font-weight:bold;vertical-align:top;">menu</td><td style="vertical-align:top;">:</td><td><div><table><tr><td><div><table><tr><td><div>Inicio</div></td></tr><tr><td><div>False</div></td></tr><tr><td><div>/</div></td></tr><tr><td><div><table></table></div></td></tr></table></div></td></tr><tr><td><div><table><tr><td><div>Jugadores</div></td></tr><tr><td><div>False</div></td></tr><tr><td><div>/jugadores</div></td></tr></table></div></td></tr><tr><td><div><table><tr><td><div>Parejas</div></td></tr><tr><td><div>False</div></td></tr><tr><td><div>/parejas</div></td></tr></table></div></td></tr><tr><td><div><table><tr><td><div>Nueva Pareja</div></td></tr><tr><td><div>False</div></td></tr><tr><td><div>/nueva_pareja</div></td></tr></table></div></td></tr><tr><td><div><table><tr><td><div>Grupos</div></td></tr><tr><td><div>False</div></td></tr><tr><td><div>/grupos</div></td></tr></table></div></td></tr><tr><td><div><table><tr><td><div>Partidos</div></td></tr><tr><td><div>False</div></td></tr><tr><td><div>/partidos</div></td></tr></table></div></td></tr><tr><td><div><table><tr><td><div>Resultados</div></td></tr><tr><td><div>False</div></td></tr><tr><td><div>/resultados</div></td></tr></table></div></td></tr></table></div></td></tr><tr><td style="font-weight:bold;vertical-align:top;">meta</td><td style="vertical-align:top;">:</td><td><div><table><tr><td style="font-weight:bold;vertical-align:top;">author</td><td style="vertical-align:top;">:</td><td><div>Your Name &lt;you@example.com&gt;</div></td></tr><tr><td style="font-weight:bold;vertical-align:top;">description</td><td style="vertical-align:top;">:</td><td><div>a cool new app</div></td></tr><tr><td style="font-weight:bold;vertical-align:top;">generator</td><td style="vertical-align:top;">:</td><td><div>Web2py Web Framework</div></td></tr><tr><td style="font-weight:bold;vertical-align:top;">keywords</td><td style="vertical-align:top;">:</td><td><div><table><tr><td><div>web2py</div></td></tr><tr><td><div>python</div></td></tr><tr><td><div>framework</div></td></tr></table></div></td></tr></table></div></td></tr><tr><td style="font-weight:bold;vertical-align:top;">models_to_run</td><td style="vertical-align:top;">:</td><td><div><table><tr><td><div>^\\w+\\.py$</div></td></tr><tr><td><div>^api/\\w+\\.py$</div></td></tr><tr><td><div>^api/get_tweet/\\w+\\.py$</div></td></tr></table></div></td></tr><tr><td style="font-weight:bold;vertical-align:top;">postprocessing</td><td style="vertical-align:top;">:</td><td><div><table></table></div></td></tr><tr><td style="font-weight:bold;vertical-align:top;">session_client</td><td style="vertical-align:top;">:</td><td><div>127.0.0.1</div></td></tr><tr><td style="font-weight:bold;vertical-align:top;">session_cookie_compression_level</td><td style="vertical-align:top;">:</td><td><div>None</div></td></tr><tr><td style="font-weight:bold;vertical-align:top;">session_cookie_expires</td><td style="vertical-align:top;">:</td><td><div>None</div></td></tr><tr><td style="font-weight:bold;vertical-align:top;">session_data_name</td><td style="vertical-align:top;">:</td><td><div>session_data_twitter_api</div></td></tr><tr><td style="font-weight:bold;vertical-align:top;">session_file</td><td style="vertical-align:top;">:</td><td><div>None</div></td></tr><tr><td style="font-weight:bold;vertical-align:top;">session_filename</td><td style="vertical-align:top;">:</td><td><div>C:\\Users\\Ignacio\\Desktop\\TFG\\Git\\web2py\\applications\\twitter_api\\sessions\\127.0.0.1-9be4df41-a8e0-4769-92f4-5bda7674f675</div></td></tr><tr><td style="font-weight:bold;vertical-align:top;">session_hash</td><td style="vertical-align:top;">:</td><td><div>c0762cbf4baf7f9af97c051e7fcb8083</div></td></tr><tr><td style="font-weight:bold;vertical-align:top;">session_id</td><td style="vertical-align:top;">:</td><td><div>127.0.0.1-9be4df41-a8e0-4769-92f4-5bda7674f675</div></td></tr><tr><td style="font-weight:bold;vertical-align:top;">session_id_name</td><td style="vertical-align:top;">:</td><td><div>session_id_twitter_api</div></td></tr><tr><td style="font-weight:bold;vertical-align:top;">session_masterapp</td><td style="vertical-align:top;">:</td><td><div>twitter_api</div></td></tr><tr><td style="font-weight:bold;vertical-align:top;">session_new</td><td style="vertical-align:top;">:</td><td><div>True</div></td></tr><tr><td style="font-weight:bold;vertical-align:top;">session_storage_type</td><td style="vertical-align:top;">:</td><td><div>file</div></td></tr><tr><td style="font-weight:bold;vertical-align:top;">show_toolbar</td><td style="vertical-align:top;">:</td><td><div>False</div></td></tr><tr><td style="font-weight:bold;vertical-align:top;">status</td><td style="vertical-align:top;">:</td><td><div>200</div></td></tr><tr><td style="font-weight:bold;vertical-align:top;">view</td><td style="vertical-align:top;">:</td><td><div>api/get_tweet.html</div></td></tr></table></div>'
tRp280
sS'locals'
p281
(dp282
S'o'
S"Status(ID=1167343116967432193, ScreenName=None, ...e nuestro f\\xfatbol \\U0001f525 \\xbfCon qu\\u2026')"
p283
sssS'traceback'
p284
S'Traceback (most recent call last):\n  File "C:\\Users\\Ignacio\\Desktop\\TFG\\Git\\web2py\\gluon\\restricted.py", line 219, in restricted\n    exec(ccode, environment)\n  File "C:\\Users\\Ignacio\\Desktop\\TFG\\Git\\web2py\\applications\\twitter_api\\controllers/api.py", line 290, in <module>\n  File "C:\\Users\\Ignacio\\Desktop\\TFG\\Git\\web2py\\gluon\\globals.py", line 421, in <lambda>\n    self._caller = lambda f: f()\n  File "C:\\Users\\Ignacio\\Desktop\\TFG\\Git\\web2py\\applications\\twitter_api\\controllers/api.py", line 87, in get_tweet\n    return response.json(dict(tweet=json_results, retweets=retweets))\n  File "C:\\Users\\Ignacio\\Desktop\\TFG\\Git\\web2py\\gluon\\globals.py", line 697, in json\n    return json(data, default=default or custom_json, indent=indent)\n  File "C:\\Users\\Ignacio\\Desktop\\TFG\\Git\\web2py\\gluon\\serializers.py", line 123, in json\n    value = json_parser.dumps(value, default=default, sort_keys=sort_keys, indent=indent)\n  File "C:\\Python27\\lib\\json\\__init__.py", line 250, in dumps\n    sort_keys=sort_keys, **kw).encode(obj)\n  File "C:\\Python27\\lib\\json\\encoder.py", line 207, in encode\n    chunks = self.iterencode(o, _one_shot=True)\n  File "C:\\Python27\\lib\\json\\encoder.py", line 270, in iterencode\n    return _iterencode(o, 0)\n  File "C:\\Users\\Ignacio\\Desktop\\TFG\\Git\\web2py\\gluon\\serializers.py", line 99, in custom_json\n    raise TypeError(repr(o) + " is not JSON serializable")\nTypeError: Status(ID=1167343116967432193, ScreenName=None, Created=Fri Aug 30 07:47:41 +0000 2019, Text=u\'RT @TNTSportsLA: Andrada y Armani, dos de los mejores arqueros de la Argentina, defienden los arcos m\\xe1s grandes de nuestro f\\xfatbol \\U0001f525 \\xbfCon qu\\u2026\') is not JSON serializable\n'
p285
s.