(dp1
S'output'
p2
S"<type 'exceptions.ValueError'> invalid literal for int() with base 10: 'aaa'"
p3
sS'layer'
p4
S'C:\\Users\\Ignacio\\Desktop\\CMPS183\\Final_Project\\web2py\\applications\\final_project\\controllers/api.py'
p5
sS'code'
p6
S'<code object <module> at 0000000004CCF130, file "C:\\Users\\Ignacio\\Desktop\\CMPS183\\Final_Project\\web2py\\applications\\final_project\\controllers/api.py", line 1>'
p7
sS'snapshot'
p8
(dp9
S'exception'
p10
(dp11
S'__getslice__'
p12
S"<method-wrapper '__getslice__' of exceptions.ValueError object>"
p13
sS'__str__'
p14
S"<method-wrapper '__str__' of exceptions.ValueError object>"
p15
sS'__reduce__'
p16
S'<built-in method __reduce__ of exceptions.ValueError object>'
p17
sS'__dict__'
p18
S'{}'
p19
sS'message'
p20
S'"invalid literal for int() with base 10: \'aaa\'"'
p21
sS'__sizeof__'
p22
S'<built-in method __sizeof__ of exceptions.ValueError object>'
p23
sS'__init__'
p24
S"<method-wrapper '__init__' of exceptions.ValueError object>"
p25
sS'__setattr__'
p26
S"<method-wrapper '__setattr__' of exceptions.ValueError object>"
p27
sS'__reduce_ex__'
p28
S'<built-in method __reduce_ex__ of exceptions.ValueError object>'
p29
sS'__new__'
p30
S'<built-in method __new__ of type object>'
p31
sS'__format__'
p32
S'<built-in method __format__ of exceptions.ValueError object>'
p33
sS'__class__'
p34
S"<type 'exceptions.ValueError'>"
p35
sS'__doc__'
p36
S"'Inappropriate argument value (of correct type).'"
p37
sS'__getitem__'
p38
S"<method-wrapper '__getitem__' of exceptions.ValueError object>"
p39
sS'__setstate__'
p40
S'<built-in method __setstate__ of exceptions.ValueError object>'
p41
sS'__getattribute__'
p42
S"<method-wrapper '__getattribute__' of exceptions.ValueError object>"
p43
sS'args'
p44
S'("invalid literal for int() with base 10: \'aaa\'",)'
p45
sS'__subclasshook__'
p46
S'<built-in method __subclasshook__ of type object>'
p47
sS'__unicode__'
p48
S'<built-in method __unicode__ of exceptions.ValueError object>'
p49
sS'__delattr__'
p50
S"<method-wrapper '__delattr__' of exceptions.ValueError object>"
p51
sS'__repr__'
p52
S"<method-wrapper '__repr__' of exceptions.ValueError object>"
p53
sS'__hash__'
p54
S"<method-wrapper '__hash__' of exceptions.ValueError object>"
p55
ssS'evalue'
p56
S"invalid literal for int() with base 10: 'aaa'"
p57
sS'request'
p58
cgluon.html
XML_unpickle
p59
(S's\xc4v\x00\x00<div><table><tr><td style="font-weight:bold;vertical-align:top;">ajax</td><td style="vertical-align:top;">:</td><td><div>True</div></td></tr><tr><td style="font-weight:bold;vertical-align:top;">application</td><td style="vertical-align:top;">:</td><td><div>final_project</div></td></tr><tr><td style="font-weight:bold;vertical-align:top;">args</td><td style="vertical-align:top;">:</td><td><div><table></table></div></td></tr><tr><td style="font-weight:bold;vertical-align:top;">cid</td><td style="vertical-align:top;">:</td><td><div>None</div></td></tr><tr><td style="font-weight:bold;vertical-align:top;">client</td><td style="vertical-align:top;">:</td><td><div>127.0.0.1</div></td></tr><tr><td style="font-weight:bold;vertical-align:top;">controller</td><td style="vertical-align:top;">:</td><td><div>api</div></td></tr><tr><td style="font-weight:bold;vertical-align:top;">cookies</td><td style="vertical-align:top;">:</td><td><div><table><tr><td style="font-weight:bold;vertical-align:top;">session_id_admin</td><td style="vertical-align:top;">:</td><td><div>127.0.0.1-62f15f87-d262-47b4-8c68-fb811d5d79c1<table><tr><td style="font-weight:bold;vertical-align:top;">comment</td><td style="vertical-align:top;">:</td><td><div></div></td></tr><tr><td style="font-weight:bold;vertical-align:top;">domain</td><td style="vertical-align:top;">:</td><td><div></div></td></tr><tr><td style="font-weight:bold;vertical-align:top;">expires</td><td style="vertical-align:top;">:</td><td><div></div></td></tr><tr><td style="font-weight:bold;vertical-align:top;">httponly</td><td style="vertical-align:top;">:</td><td><div></div></td></tr><tr><td style="font-weight:bold;vertical-align:top;">max-age</td><td style="vertical-align:top;">:</td><td><div></div></td></tr><tr><td style="font-weight:bold;vertical-align:top;">path</td><td style="vertical-align:top;">:</td><td><div></div></td></tr><tr><td style="font-weight:bold;vertical-align:top;">samesite</td><td style="vertical-align:top;">:</td><td><div></div></td></tr><tr><td style="font-weight:bold;vertical-align:top;">secure</td><td style="vertical-align:top;">:</td><td><div></div></td></tr><tr><td style="font-weight:bold;vertical-align:top;">version</td><td style="vertical-align:top;">:</td><td><div></div></td></tr></table></div></td></tr><tr><td style="font-weight:bold;vertical-align:top;">session_id_austin_shopping</td><td style="vertical-align:top;">:</td><td><div>127.0.0.1-0a287f51-acbd-4f35-862b-025698d8eeba<table><tr><td style="font-weight:bold;vertical-align:top;">comment</td><td style="vertical-align:top;">:</td><td><div></div></td></tr><tr><td style="font-weight:bold;vertical-align:top;">domain</td><td style="vertical-align:top;">:</td><td><div></div></td></tr><tr><td style="font-weight:bold;vertical-align:top;">expires</td><td style="vertical-align:top;">:</td><td><div></div></td></tr><tr><td style="font-weight:bold;vertical-align:top;">httponly</td><td style="vertical-align:top;">:</td><td><div></div></td></tr><tr><td style="font-weight:bold;vertical-align:top;">max-age</td><td style="vertical-align:top;">:</td><td><div></div></td></tr><tr><td style="font-weight:bold;vertical-align:top;">path</td><td style="vertical-align:top;">:</td><td><div></div></td></tr><tr><td style="font-weight:bold;vertical-align:top;">samesite</td><td style="vertical-align:top;">:</td><td><div></div></td></tr><tr><td style="font-weight:bold;vertical-align:top;">secure</td><td style="vertical-align:top;">:</td><td><div></div></td></tr><tr><td style="font-weight:bold;vertical-align:top;">version</td><td style="vertical-align:top;">:</td><td><div></div></td></tr></table></div></td></tr><tr><td style="font-weight:bold;vertical-align:top;">session_id_final_project</td><td style="vertical-align:top;">:</td><td><div>127.0.0.1-f1cc6058-224d-4cd6-a963-a62af75786c8<table><tr><td style="font-weight:bold;vertical-align:top;">comment</td><td style="vertical-align:top;">:</td><td><div></div></td></tr><tr><td style="font-weight:bold;vertical-align:top;">domain</td><td style="vertical-align:top;">:</td><td><div></div></td></tr><tr><td style="font-weight:bold;vertical-align:top;">expires</td><td style="vertical-align:top;">:</td><td><div></div></td></tr><tr><td style="font-weight:bold;vertical-align:top;">httponly</td><td style="vertical-align:top;">:</td><td><div></div></td></tr><tr><td style="font-weight:bold;vertical-align:top;">max-age</td><td style="vertical-align:top;">:</td><td><div></div></td></tr><tr><td style="font-weight:bold;vertical-align:top;">path</td><td style="vertical-align:top;">:</td><td><div></div></td></tr><tr><td style="font-weight:bold;vertical-align:top;">samesite</td><td style="vertical-align:top;">:</td><td><div></div></td></tr><tr><td style="font-weight:bold;vertical-align:top;">secure</td><td style="vertical-align:top;">:</td><td><div></div></td></tr><tr><td style="font-weight:bold;vertical-align:top;">version</td><td style="vertical-align:top;">:</td><td><div></div></td></tr></table></div></td></tr><tr><td style="font-weight:bold;vertical-align:top;">session_id_hw4_review5</td><td style="vertical-align:top;">:</td><td><div>127.0.0.1-ef01543b-c0c3-4d52-98ea-72328ecf4c9a<table><tr><td style="font-weight:bold;vertical-align:top;">comment</td><td style="vertical-align:top;">:</td><td><div></div></td></tr><tr><td style="font-weight:bold;vertical-align:top;">domain</td><td style="vertical-align:top;">:</td><td><div></div></td></tr><tr><td style="font-weight:bold;vertical-align:top;">expires</td><td style="vertical-align:top;">:</td><td><div></div></td></tr><tr><td style="font-weight:bold;vertical-align:top;">httponly</td><td style="vertical-align:top;">:</td><td><div></div></td></tr><tr><td style="font-weight:bold;vertical-align:top;">max-age</td><td style="vertical-align:top;">:</td><td><div></div></td></tr><tr><td style="font-weight:bold;vertical-align:top;">path</td><td style="vertical-align:top;">:</td><td><div></div></td></tr><tr><td style="font-weight:bold;vertical-align:top;">samesite</td><td style="vertical-align:top;">:</td><td><div></div></td></tr><tr><td style="font-weight:bold;vertical-align:top;">secure</td><td style="vertical-align:top;">:</td><td><div></div></td></tr><tr><td style="font-weight:bold;vertical-align:top;">version</td><td style="vertical-align:top;">:</td><td><div></div></td></tr></table></div></td></tr><tr><td style="font-weight:bold;vertical-align:top;">session_id_hw5_search_working</td><td style="vertical-align:top;">:</td><td><div>127.0.0.1-9e39fb85-6877-4128-87fb-b2819cd26b87<table><tr><td style="font-weight:bold;vertical-align:top;">comment</td><td style="vertical-align:top;">:</td><td><div></div></td></tr><tr><td style="font-weight:bold;vertical-align:top;">domain</td><td style="vertical-align:top;">:</td><td><div></div></td></tr><tr><td style="font-weight:bold;vertical-align:top;">expires</td><td style="vertical-align:top;">:</td><td><div></div></td></tr><tr><td style="font-weight:bold;vertical-align:top;">httponly</td><td style="vertical-align:top;">:</td><td><div></div></td></tr><tr><td style="font-weight:bold;vertical-align:top;">max-age</td><td style="vertical-align:top;">:</td><td><div></div></td></tr><tr><td style="font-weight:bold;vertical-align:top;">path</td><td style="vertical-align:top;">:</td><td><div></div></td></tr><tr><td style="font-weight:bold;vertical-align:top;">samesite</td><td style="vertical-align:top;">:</td><td><div></div></td></tr><tr><td style="font-weight:bold;vertical-align:top;">secure</td><td style="vertical-align:top;">:</td><td><div></div></td></tr><tr><td style="font-weight:bold;vertical-align:top;">version</td><td style="vertical-align:top;">:</td><td><div></div></td></tr></table></div></td></tr><tr><td style="font-weight:bold;vertical-align:top;">session_id_welcome</td><td style="vertical-align:top;">:</td><td><div>127.0.0.1-6ea1d2d1-f21b-4b60-a78b-6e0e28d1a16f<table><tr><td style="font-weight:bold;vertical-align:top;">comment</td><td style="vertical-align:top;">:</td><td><div></div></td></tr><tr><td style="font-weight:bold;vertical-align:top;">domain</td><td style="vertical-align:top;">:</td><td><div></div></td></tr><tr><td style="font-weight:bold;vertical-align:top;">expires</td><td style="vertical-align:top;">:</td><td><div></div></td></tr><tr><td style="font-weight:bold;vertical-align:top;">httponly</td><td style="vertical-align:top;">:</td><td><div></div></td></tr><tr><td style="font-weight:bold;vertical-align:top;">max-age</td><td style="vertical-align:top;">:</td><td><div></div></td></tr><tr><td style="font-weight:bold;vertical-align:top;">path</td><td style="vertical-align:top;">:</td><td><div></div></td></tr><tr><td style="font-weight:bold;vertical-align:top;">samesite</td><td style="vertical-align:top;">:</td><td><div></div></td></tr><tr><td style="font-weight:bold;vertical-align:top;">secure</td><td style="vertical-align:top;">:</td><td><div></div></td></tr><tr><td style="font-weight:bold;vertical-align:top;">version</td><td style="vertical-align:top;">:</td><td><div></div></td></tr></table></div></td></tr></table></div></td></tr><tr><td style="font-weight:bold;vertical-align:top;">env</td><td style="vertical-align:top;">:</td><td><div><table><tr><td style="font-weight:bold;vertical-align:top;">CONTENT_LENGTH</td><td style="vertical-align:top;">:</td><td><div>27</div></td></tr><tr><td style="font-weight:bold;vertical-align:top;">CONTENT_TYPE</td><td style="vertical-align:top;">:</td><td><div>application/x-www-form-urlencoded; charset=UTF-8</div></td></tr><tr><td style="font-weight:bold;vertical-align:top;">HTTP_ACCEPT</td><td style="vertical-align:top;">:</td><td><div>*/*</div></td></tr><tr><td style="font-weight:bold;vertical-align:top;">HTTP_ACCEPT_ENCODING</td><td style="vertical-align:top;">:</td><td><div>gzip, deflate, br</div></td></tr><tr><td style="font-weight:bold;vertical-align:top;">HTTP_ACCEPT_LANGUAGE</td><td style="vertical-align:top;">:</td><td><div>es,en;q=0.9</div></td></tr><tr><td style="font-weight:bold;vertical-align:top;">HTTP_CONNECTION</td><td style="vertical-align:top;">:</td><td><div>keep-alive</div></td></tr><tr><td style="font-weight:bold;vertical-align:top;">HTTP_CONTENT_LENGTH</td><td style="vertical-align:top;">:</td><td><div>27</div></td></tr><tr><td style="font-weight:bold;vertical-align:top;">HTTP_CONTENT_TYPE</td><td style="vertical-align:top;">:</td><td><div>application/x-www-form-urlencoded; charset=UTF-8</div></td></tr><tr><td style="font-weight:bold;vertical-align:top;">HTTP_COOKIE</td><td style="vertical-align:top;">:</td><td><div>session_id_hw4_review5=127.0.0.1-ef01543b-c0c3-4d52-98ea-72328ecf4c9a; session_id_admin=127.0.0.1-62f15f87-d262-47b4-8c68-fb811d5d79c1; session_id_hw5_search_working=127.0.0.1-9e39fb85-6877-4128-87fb-b2819cd26b87; session_id_austin_shopping=127.0.0.1-0a287f51-acbd-4f35-862b-025698d8eeba; session_id_welcome=127.0.0.1-6ea1d2d1-f21b-4b60-a78b-6e0e28d1a16f; session_id_final_project=127.0.0.1-f1cc6058-224d-4cd6-a963-a62af75786c8</div></td></tr><tr><td style="font-weight:bold;vertical-align:top;">HTTP_HOST</td><td style="vertical-align:top;">:</td><td><div>127.0.0.1:8000</div></td></tr><tr><td style="font-weight:bold;vertical-align:top;">HTTP_ORIGIN</td><td style="vertical-align:top;">:</td><td><div>http://127.0.0.1:8000</div></td></tr><tr><td style="font-weight:bold;vertical-align:top;">HTTP_REFERER</td><td style="vertical-align:top;">:</td><td><div>http://127.0.0.1:8000/new_book</div></td></tr><tr><td style="font-weight:bold;vertical-align:top;">HTTP_USER_AGENT</td><td style="vertical-align:top;">:</td><td><div>Mozilla/5.0 (Windows NT 10.0; Win64; x64) AppleWebKit/537.36 (KHTML, like Gecko) Chrome/74.0.3729.169 Safari/537.36</div></td></tr><tr><td style="font-weight:bold;vertical-align:top;">HTTP_X_REQUESTED_WITH</td><td style="vertical-align:top;">:</td><td><div>XMLHttpRequest</div></td></tr><tr><td style="font-weight:bold;vertical-align:top;">PATH_INFO</td><td style="vertical-align:top;">:</td><td><div>/api/save_new_book</div></td></tr><tr><td style="font-weight:bold;vertical-align:top;">QUERY_STRING</td><td style="vertical-align:top;">:</td><td><div></div></td></tr><tr><td style="font-weight:bold;vertical-align:top;">REMOTE_ADDR</td><td style="vertical-align:top;">:</td><td><div>127.0.0.1</div></td></tr><tr><td style="font-weight:bold;vertical-align:top;">REMOTE_PORT</td><td style="vertical-align:top;">:</td><td><div>64373</div></td></tr><tr><td style="font-weight:bold;vertical-align:top;">REQUEST_METHOD</td><td style="vertical-align:top;">:</td><td><div>POST</div></td></tr><tr><td style="font-weight:bold;vertical-align:top;">SCRIPT_NAME</td><td style="vertical-align:top;">:</td><td><div></div></td></tr><tr><td style="font-weight:bold;vertical-align:top;">SERVER_NAME</td><td style="vertical-align:top;">:</td><td><div>LAPTOP-L4O5O5SF</div></td></tr><tr><td style="font-weight:bold;vertical-align:top;">SERVER_PORT</td><td style="vertical-align:top;">:</td><td><div>8000</div></td></tr><tr><td style="font-weight:bold;vertical-align:top;">SERVER_PROTOCOL</td><td style="vertical-align:top;">:</td><td><div>HTTP/1.1</div></td></tr><tr><td style="font-weight:bold;vertical-align:top;">SERVER_SOFTWARE</td><td style="vertical-align:top;">:</td><td><div>Rocket 1.2.6</div></td></tr><tr><td style="font-weight:bold;vertical-align:top;">app_folders</td><td style="vertical-align:top;">:</td><td><div>set([&#x27;C:\\\\Users\\\\Ignacio\\\\Desktop\\\\CMPS183\\\\Final_Project\\\\web2py\\\\applications\\\\final_project&#x27;])</div></td></tr><tr><td style="font-weight:bold;vertical-align:top;">applications_parent</td><td style="vertical-align:top;">:</td><td><div>C:\\Users\\Ignacio\\Desktop\\CMPS183\\Final_Project\\web2py</div></td></tr><tr><td style="font-weight:bold;vertical-align:top;">cmd_args</td><td style="vertical-align:top;">:</td><td><div><table></table></div></td></tr><tr><td style="font-weight:bold;vertical-align:top;">cmd_options</td><td style="vertical-align:top;">:</td><td><div>&lt;Values at 0x3fc4d48: {&#x27;verbose&#x27;: False, &#x27;ip&#x27;: &#x27;127.0.0.1&#x27;, &#x27;debuglevel&#x27;: 30, &#x27;with_scheduler&#x27;: False, &#x27;shutdown_timeout&#x27;: 5, &#x27;taskbar&#x27;: False, &#x27;with_coverage&#x27;: False, &#x27;pid_filename&#x27;: &#x27;httpserver.pid&#x27;, &#x27;maxthreads&#x27;: None, &#x27;softcron&#x27;: False, &#x27;server_name&#x27;: &#x27;LAPTOP-L4O5O5SF&#x27;, &#x27;bpython&#x27;: False, &#x27;nogui&#x27;: False, &#x27;port&#x27;: 8000, &#x27;print_errors&#x27;: True, &#x27;extcron&#x27;: False, &#x27;runcron&#x27;: False, &#x27;run_system_tests&#x27;: False, &#x27;test&#x27;: None, &#x27;folder&#x27;: &#x27;C:\\\\Users\\\\Ignacio\\\\Desktop\\\\CMPS183\\\\Final_Project\\\\web2py&#x27;, &#x27;config&#x27;: &#x27;&#x27;, &#x27;minthreads&#x27;: None, &#x27;shell&#x27;: None, &#x27;run&#x27;: &#x27;&#x27;, &#x27;log_filename&#x27;: &#x27;httpserver.log&#x27;, &#x27;profiler_dir&#x27;: None, &#x27;args&#x27;: [], &#x27;socket_timeout&#x27;: 5, &#x27;ssl_ca_certificate&#x27;: None, &#x27;scheduler&#x27;: None, &#x27;interfaces&#x27;: None, &#x27;ssl_private_key&#x27;: &#x27;&#x27;, &#x27;gae&#x27;: None, &#x27;password&#x27;: &#x27;******&#x27;, &#x27;request_queue_size&#x27;: 5, &#x27;ssl_certificate&#x27;: &#x27;&#x27;, &#x27;cronjob&#x27;: False, &#x27;numthreads&#x27;: None, &#x27;quiet&#x27;: False, &#x27;import_models&#x27;: False, &#x27;timeout&#x27;: 10, &#x27;plain&#x27;: False, &#x27;nobanner&#x27;: False}&gt;</div></td></tr><tr><td style="font-weight:bold;vertical-align:top;">content_length</td><td style="vertical-align:top;">:</td><td><div>27</div></td></tr><tr><td style="font-weight:bold;vertical-align:top;">content_type</td><td style="vertical-align:top;">:</td><td><div>application/x-www-form-urlencoded; charset=UTF-8</div></td></tr><tr><td style="font-weight:bold;vertical-align:top;">db_sessions</td><td style="vertical-align:top;">:</td><td><div>set([])</div></td></tr><tr><td style="font-weight:bold;vertical-align:top;">debugging</td><td style="vertical-align:top;">:</td><td><div>False</div></td></tr><tr><td style="font-weight:bold;vertical-align:top;">gluon_parent</td><td style="vertical-align:top;">:</td><td><div>C:\\Users\\Ignacio\\Desktop\\CMPS183\\Final_Project\\web2py</div></td></tr><tr><td style="font-weight:bold;vertical-align:top;">http_accept</td><td style="vertical-align:top;">:</td><td><div>*/*</div></td></tr><tr><td style="font-weight:bold;vertical-align:top;">http_accept_encoding</td><td style="vertical-align:top;">:</td><td><div>gzip, deflate, br</div></td></tr><tr><td style="font-weight:bold;vertical-align:top;">http_accept_language</td><td style="vertical-align:top;">:</td><td><div>es,en;q=0.9</div></td></tr><tr><td style="font-weight:bold;vertical-align:top;">http_connection</td><td style="vertical-align:top;">:</td><td><div>keep-alive</div></td></tr><tr><td style="font-weight:bold;vertical-align:top;">http_content_length</td><td style="vertical-align:top;">:</td><td><div>27</div></td></tr><tr><td style="font-weight:bold;vertical-align:top;">http_content_type</td><td style="vertical-align:top;">:</td><td><div>application/x-www-form-urlencoded; charset=UTF-8</div></td></tr><tr><td style="font-weight:bold;vertical-align:top;">http_cookie</td><td style="vertical-align:top;">:</td><td><div>session_id_hw4_review5=127.0.0.1-ef01543b-c0c3-4d52-98ea-72328ecf4c9a; session_id_admin=127.0.0.1-62f15f87-d262-47b4-8c68-fb811d5d79c1; session_id_hw5_search_working=127.0.0.1-9e39fb85-6877-4128-87fb-b2819cd26b87; session_id_austin_shopping=127.0.0.1-0a287f51-acbd-4f35-862b-025698d8eeba; session_id_welcome=127.0.0.1-6ea1d2d1-f21b-4b60-a78b-6e0e28d1a16f; session_id_final_project=127.0.0.1-f1cc6058-224d-4cd6-a963-a62af75786c8</div></td></tr><tr><td style="font-weight:bold;vertical-align:top;">http_host</td><td style="vertical-align:top;">:</td><td><div>127.0.0.1:8000</div></td></tr><tr><td style="font-weight:bold;vertical-align:top;">http_origin</td><td style="vertical-align:top;">:</td><td><div>http://127.0.0.1:8000</div></td></tr><tr><td style="font-weight:bold;vertical-align:top;">http_referer</td><td style="vertical-align:top;">:</td><td><div>http://127.0.0.1:8000/new_book</div></td></tr><tr><td style="font-weight:bold;vertical-align:top;">http_user_agent</td><td style="vertical-align:top;">:</td><td><div>Mozilla/5.0 (Windows NT 10.0; Win64; x64) AppleWebKit/537.36 (KHTML, like Gecko) Chrome/74.0.3729.169 Safari/537.36</div></td></tr><tr><td style="font-weight:bold;vertical-align:top;">http_x_requested_with</td><td style="vertical-align:top;">:</td><td><div>XMLHttpRequest</div></td></tr><tr><td style="font-weight:bold;vertical-align:top;">is_jython</td><td style="vertical-align:top;">:</td><td><div>False</div></td></tr><tr><td style="font-weight:bold;vertical-align:top;">is_py2</td><td style="vertical-align:top;">:</td><td><div>True</div></td></tr><tr><td style="font-weight:bold;vertical-align:top;">is_pypy</td><td style="vertical-align:top;">:</td><td><div>False</div></td></tr><tr><td style="font-weight:bold;vertical-align:top;">is_source</td><td style="vertical-align:top;">:</td><td><div>True</div></td></tr><tr><td style="font-weight:bold;vertical-align:top;">local_hosts</td><td style="vertical-align:top;">:</td><td><div><table><tr><td><div>fe80::64bf:1f23:8129:d457%10</div></td></tr><tr><td><div>LAPTOP-L4O5O5SF</div></td></tr><tr><td><div>::ffff:127.0.0.1</div></td></tr><tr><td><div>::1</div></td></tr><tr><td><div>192.168.0.115</div></td></tr><tr><td><div>127.0.0.1</div></td></tr></table></div></td></tr><tr><td style="font-weight:bold;vertical-align:top;">path_info</td><td style="vertical-align:top;">:</td><td><div>/api/save_new_book</div></td></tr><tr><td style="font-weight:bold;vertical-align:top;">query_string</td><td style="vertical-align:top;">:</td><td><div></div></td></tr><tr><td style="font-weight:bold;vertical-align:top;">remote_addr</td><td style="vertical-align:top;">:</td><td><div>127.0.0.1</div></td></tr><tr><td style="font-weight:bold;vertical-align:top;">remote_port</td><td style="vertical-align:top;">:</td><td><div>64373</div></td></tr><tr><td style="font-weight:bold;vertical-align:top;">request_method</td><td style="vertical-align:top;">:</td><td><div>POST</div></td></tr><tr><td style="font-weight:bold;vertical-align:top;">request_uri</td><td style="vertical-align:top;">:</td><td><div>/final_project/en/api/save_new_book</div></td></tr><tr><td style="font-weight:bold;vertical-align:top;">script_name</td><td style="vertical-align:top;">:</td><td><div></div></td></tr><tr><td style="font-weight:bold;vertical-align:top;">server_name</td><td style="vertical-align:top;">:</td><td><div>LAPTOP-L4O5O5SF</div></td></tr><tr><td style="font-weight:bold;vertical-align:top;">server_port</td><td style="vertical-align:top;">:</td><td><div>8000</div></td></tr><tr><td style="font-weight:bold;vertical-align:top;">server_protocol</td><td style="vertical-align:top;">:</td><td><div>HTTP/1.1</div></td></tr><tr><td style="font-weight:bold;vertical-align:top;">server_software</td><td style="vertical-align:top;">:</td><td><div>Rocket 1.2.6</div></td></tr><tr><td style="font-weight:bold;vertical-align:top;">web2py_original_uri</td><td style="vertical-align:top;">:</td><td><div>/api/save_new_book</div></td></tr><tr><td style="font-weight:bold;vertical-align:top;">web2py_path</td><td style="vertical-align:top;">:</td><td><div>C:\\Users\\Ignacio\\Desktop\\CMPS183\\Final_Project\\web2py</div></td></tr><tr><td style="font-weight:bold;vertical-align:top;">web2py_version</td><td style="vertical-align:top;">:</td><td><div>2.18.5-stable+timestamp.2019.04.08.04.22.03</div></td></tr><tr><td style="font-weight:bold;vertical-align:top;">wsgi.errors</td><td style="vertical-align:top;">:</td><td><div>&lt;open file &#x27;&lt;stderr&gt;&#x27;, mode &#x27;w&#x27; at 0x000000000272B150&gt;</div></td></tr><tr><td style="font-weight:bold;vertical-align:top;">wsgi.file_wrapper</td><td style="vertical-align:top;">:</td><td><div>&lt;class wsgiref.util.FileWrapper at 0x0000000003F727C8&gt;</div></td></tr><tr><td style="font-weight:bold;vertical-align:top;">wsgi.input</td><td style="vertical-align:top;">:</td><td><div>&lt;socket._fileobject object at 0x0000000004C43318&gt;</div></td></tr><tr><td style="font-weight:bold;vertical-align:top;">wsgi.multiprocess</td><td style="vertical-align:top;">:</td><td><div>False</div></td></tr><tr><td style="font-weight:bold;vertical-align:top;">wsgi.multithread</td><td style="vertical-align:top;">:</td><td><div>True</div></td></tr><tr><td style="font-weight:bold;vertical-align:top;">wsgi.run_once</td><td style="vertical-align:top;">:</td><td><div>False</div></td></tr><tr><td style="font-weight:bold;vertical-align:top;">wsgi.url_scheme</td><td style="vertical-align:top;">:</td><td><div>http</div></td></tr><tr><td style="font-weight:bold;vertical-align:top;">wsgi.version</td><td style="vertical-align:top;">:</td><td><div><table><tr><td><div>1</div></td></tr><tr><td><div>0</div></td></tr></table></div></td></tr><tr><td style="font-weight:bold;vertical-align:top;">wsgi_errors</td><td style="vertical-align:top;">:</td><td><div>&lt;open file &#x27;&lt;stderr&gt;&#x27;, mode &#x27;w&#x27; at 0x000000000272B150&gt;</div></td></tr><tr><td style="font-weight:bold;vertical-align:top;">wsgi_file_wrapper</td><td style="vertical-align:top;">:</td><td><div>&lt;class wsgiref.util.FileWrapper at 0x0000000003F727C8&gt;</div></td></tr><tr><td style="font-weight:bold;vertical-align:top;">wsgi_input</td><td style="vertical-align:top;">:</td><td><div>&lt;socket._fileobject object at 0x0000000004C43318&gt;</div></td></tr><tr><td style="font-weight:bold;vertical-align:top;">wsgi_multiprocess</td><td style="vertical-align:top;">:</td><td><div>False</div></td></tr><tr><td style="font-weight:bold;vertical-align:top;">wsgi_multithread</td><td style="vertical-align:top;">:</td><td><div>True</div></td></tr><tr><td style="font-weight:bold;vertical-align:top;">wsgi_run_once</td><td style="vertical-align:top;">:</td><td><div>False</div></td></tr><tr><td style="font-weight:bold;vertical-align:top;">wsgi_url_scheme</td><td style="vertical-align:top;">:</td><td><div>http</div></td></tr><tr><td style="font-weight:bold;vertical-align:top;">wsgi_version</td><td style="vertical-align:top;">:</td><td><div><table><tr><td><div>1</div></td></tr><tr><td><div>0</div></td></tr></table></div></td></tr></table></div></td></tr><tr><td style="font-weight:bold;vertical-align:top;">extension</td><td style="vertical-align:top;">:</td><td><div>html</div></td></tr><tr><td style="font-weight:bold;vertical-align:top;">folder</td><td style="vertical-align:top;">:</td><td><div>C:\\Users\\Ignacio\\Desktop\\CMPS183\\Final_Project\\web2py\\applications\\final_project</div></td></tr><tr><td style="font-weight:bold;vertical-align:top;">function</td><td style="vertical-align:top;">:</td><td><div>save_new_book</div></td></tr><tr><td style="font-weight:bold;vertical-align:top;">global_settings</td><td style="vertical-align:top;">:</td><td><div><table><tr><td style="font-weight:bold;vertical-align:top;">app_folders</td><td style="vertical-align:top;">:</td><td><div>set([&#x27;C:\\\\Users\\\\Ignacio\\\\Desktop\\\\CMPS183\\\\Final_Project\\\\web2py\\\\applications\\\\final_project&#x27;])</div></td></tr><tr><td style="font-weight:bold;vertical-align:top;">applications_parent</td><td style="vertical-align:top;">:</td><td><div>C:\\Users\\Ignacio\\Desktop\\CMPS183\\Final_Project\\web2py</div></td></tr><tr><td style="font-weight:bold;vertical-align:top;">cmd_args</td><td style="vertical-align:top;">:</td><td><div><table></table></div></td></tr><tr><td style="font-weight:bold;vertical-align:top;">cmd_options</td><td style="vertical-align:top;">:</td><td><div>&lt;Values at 0x3fc4d48: {&#x27;verbose&#x27;: False, &#x27;ip&#x27;: &#x27;127.0.0.1&#x27;, &#x27;debuglevel&#x27;: 30, &#x27;with_scheduler&#x27;: False, &#x27;shutdown_timeout&#x27;: 5, &#x27;taskbar&#x27;: False, &#x27;with_coverage&#x27;: False, &#x27;pid_filename&#x27;: &#x27;httpserver.pid&#x27;, &#x27;maxthreads&#x27;: None, &#x27;softcron&#x27;: False, &#x27;server_name&#x27;: &#x27;LAPTOP-L4O5O5SF&#x27;, &#x27;bpython&#x27;: False, &#x27;nogui&#x27;: False, &#x27;port&#x27;: 8000, &#x27;print_errors&#x27;: True, &#x27;extcron&#x27;: False, &#x27;runcron&#x27;: False, &#x27;run_system_tests&#x27;: False, &#x27;test&#x27;: None, &#x27;folder&#x27;: &#x27;C:\\\\Users\\\\Ignacio\\\\Desktop\\\\CMPS183\\\\Final_Project\\\\web2py&#x27;, &#x27;config&#x27;: &#x27;&#x27;, &#x27;minthreads&#x27;: None, &#x27;shell&#x27;: None, &#x27;run&#x27;: &#x27;&#x27;, &#x27;log_filename&#x27;: &#x27;httpserver.log&#x27;, &#x27;profiler_dir&#x27;: None, &#x27;args&#x27;: [], &#x27;socket_timeout&#x27;: 5, &#x27;ssl_ca_certificate&#x27;: None, &#x27;scheduler&#x27;: None, &#x27;interfaces&#x27;: None, &#x27;ssl_private_key&#x27;: &#x27;&#x27;, &#x27;gae&#x27;: None, &#x27;password&#x27;: &#x27;******&#x27;, &#x27;request_queue_size&#x27;: 5, &#x27;ssl_certificate&#x27;: &#x27;&#x27;, &#x27;cronjob&#x27;: False, &#x27;numthreads&#x27;: None, &#x27;quiet&#x27;: False, &#x27;import_models&#x27;: False, &#x27;timeout&#x27;: 10, &#x27;plain&#x27;: False, &#x27;nobanner&#x27;: False}&gt;</div></td></tr><tr><td style="font-weight:bold;vertical-align:top;">db_sessions</td><td style="vertical-align:top;">:</td><td><div>set([])</div></td></tr><tr><td style="font-weight:bold;vertical-align:top;">debugging</td><td style="vertical-align:top;">:</td><td><div>False</div></td></tr><tr><td style="font-weight:bold;vertical-align:top;">gluon_parent</td><td style="vertical-align:top;">:</td><td><div>C:\\Users\\Ignacio\\Desktop\\CMPS183\\Final_Project\\web2py</div></td></tr><tr><td style="font-weight:bold;vertical-align:top;">is_jython</td><td style="vertical-align:top;">:</td><td><div>False</div></td></tr><tr><td style="font-weight:bold;vertical-align:top;">is_py2</td><td style="vertical-align:top;">:</td><td><div>True</div></td></tr><tr><td style="font-weight:bold;vertical-align:top;">is_pypy</td><td style="vertical-align:top;">:</td><td><div>False</div></td></tr><tr><td style="font-weight:bold;vertical-align:top;">is_source</td><td style="vertical-align:top;">:</td><td><div>True</div></td></tr><tr><td style="font-weight:bold;vertical-align:top;">local_hosts</td><td style="vertical-align:top;">:</td><td><div><table><tr><td><div>fe80::64bf:1f23:8129:d457%10</div></td></tr><tr><td><div>LAPTOP-L4O5O5SF</div></td></tr><tr><td><div>::ffff:127.0.0.1</div></td></tr><tr><td><div>::1</div></td></tr><tr><td><div>192.168.0.115</div></td></tr><tr><td><div>127.0.0.1</div></td></tr></table></div></td></tr><tr><td style="font-weight:bold;vertical-align:top;">web2py_version</td><td style="vertical-align:top;">:</td><td><div>2.18.5-stable+timestamp.2019.04.08.04.22.03</div></td></tr></table></div></td></tr><tr><td style="font-weight:bold;vertical-align:top;">is_https</td><td style="vertical-align:top;">:</td><td><div>False</div></td></tr><tr><td style="font-weight:bold;vertical-align:top;">is_local</td><td style="vertical-align:top;">:</td><td><div>True</div></td></tr><tr><td style="font-weight:bold;vertical-align:top;">is_restful</td><td style="vertical-align:top;">:</td><td><div>False</div></td></tr><tr><td style="font-weight:bold;vertical-align:top;">is_scheduler</td><td style="vertical-align:top;">:</td><td><div>False</div></td></tr><tr><td style="font-weight:bold;vertical-align:top;">is_shell</td><td style="vertical-align:top;">:</td><td><div>False</div></td></tr><tr><td style="font-weight:bold;vertical-align:top;">method</td><td style="vertical-align:top;">:</td><td><div>POST</div></td></tr><tr><td style="font-weight:bold;vertical-align:top;">now</td><td style="vertical-align:top;">:</td><td><div>datetime.datetime(2019, 6, 6, 1, 16, 4, 84000)</div></td></tr><tr><td style="font-weight:bold;vertical-align:top;">uri_language</td><td style="vertical-align:top;">:</td><td><div>en</div></td></tr><tr><td style="font-weight:bold;vertical-align:top;">url</td><td style="vertical-align:top;">:</td><td><div>/api/save_new_book</div></td></tr><tr><td style="font-weight:bold;vertical-align:top;">utcnow</td><td style="vertical-align:top;">:</td><td><div>datetime.datetime(2019, 6, 6, 8, 16, 4, 84000)</div></td></tr><tr><td style="font-weight:bold;vertical-align:top;">wsgi</td><td style="vertical-align:top;">:</td><td><div>&lt;gluon.main.LazyWSGI object at 0x0000000004C61EF0&gt;</div></td></tr></table></div>'
tRp60
sS'frames'
p61
(lp62
(dp63
S'file'
p64
S'C:\\Users\\Ignacio\\Desktop\\CMPS183\\Final_Project\\web2py\\gluon\\restricted.py'
p65
sS'dump'
p66
(dp67
S'environment'
p68
S"{'A': <class 'gluon.html.A'>, 'ANY_OF': <class 'pydal.validators.ANY_OF'>, 'ASSIGNJS': <function ASSIGNJS>, 'AppConfig': <function AppConfig>, 'Auth': <class 'gluon.tools.Auth'>, 'B': <class 'gluon.html.B'>, 'BEAUTIFY': <class 'gluon.html.BEAUTIFY'>, 'BODY': <class 'gluon.html.BODY'>, 'BR': <class 'gluon.html.BR'>, 'BUTTON': <class 'gluon.html.BUTTON'>, ...}"
p69
sS'ccode'
p70
S'<code object <module> at 0000000004CCF130, file ...ations\\final_project\\controllers/api.py", line 1>'
p71
ssS'lnum'
p72
I219
sS'lines'
p73
(dp74
I214
S'    if environment is None:'
p75
sI215
S'        environment = {}'
p76
sI216
S"    environment['__file__'] = layer"
p77
sI217
S"    environment['__name__'] = '__restricted__'"
p78
sI218
S'    try:'
p79
sI219
S'        exec(ccode, environment)'
p80
sI220
S'    except HTTP:'
p81
sI221
S'        raise'
p82
sI222
S'    except RestrictedError:'
p83
sI223
S'        # do not encapsulate (obfuscate) the original RestrictedError'
p84
ssS'call'
p85
S'(ccode=<code object <module> at 0000000004CCF130, file ...ations\\final_project\\controllers/api.py", line 1>, environment={\'A\': <class \'gluon.html.A\'>, \'ANY_OF\': <class \'pydal.validators.ANY_OF\'>, \'ASSIGNJS\': <function ASSIGNJS>, \'AppConfig\': <function AppConfig>, \'Auth\': <class \'gluon.tools.Auth\'>, \'B\': <class \'gluon.html.B\'>, \'BEAUTIFY\': <class \'gluon.html.BEAUTIFY\'>, \'BODY\': <class \'gluon.html.BODY\'>, \'BR\': <class \'gluon.html.BR\'>, \'BUTTON\': <class \'gluon.html.BUTTON\'>, ...}, layer=r\'C:\\Users\\Ignacio\\Desktop\\CMPS183\\Final_Project\\web2py\\applications\\final_project\\controllers/api.py\', scode=<code object <module> at 0000000004CCF130, file ...ations\\final_project\\controllers/api.py", line 1>)'
p86
sS'func'
p87
S'restricted'
p88
sa(dp89
g64
S'C:\\Users\\Ignacio\\Desktop\\CMPS183\\Final_Project\\web2py\\applications\\final_project\\controllers\\api.py'
p90
sg66
(dp91
sg72
I87
sg73
(dp92
I77
S'#     )'
p93
sI78
S'#     return "ok"'
p94
sI79
S''
sI80
S'# def get_other_reviews():'
p95
sI81
S'#     if auth.user is None:'
p96
sI82
S'#         other_reviews = db(db.review.book_id == request.vars.book_id).select()'
p97
sI83
S'#     else:'
p98
sI84
S'#         other_reviews = db( (db.review.book_id == request.vars.book_id) & (db.review.email != auth.user.email) ).select()'
p99
sI85
S''
sI86
S'#     return response.json(dict(other_reviews=other_reviews))'
p100
ssg85
S'()'
p101
sg87
S'<module>'
p102
sa(dp103
g64
S'C:\\Users\\Ignacio\\Desktop\\CMPS183\\Final_Project\\web2py\\gluon\\globals.py'
p104
sg66
(dp105
S'self'
p106
S'undefined'
p107
sS'f'
S'<function save_new_book>'
p108
ssg72
I421
sg73
(dp109
I416
S"        self.flash = ''            # used by the default view layout"
p110
sI417
S'        self.meta = Storage()      # used by web2py_ajax.html'
p111
sI418
S'        self.menu = []             # used by the default view layout'
p112
sI419
S'        self.files = []            # used by web2py_ajax.html'
p113
sI420
S'        self._vars = None'
p114
sI421
S'        self._caller = lambda f: f()'
p115
sI422
S'        self._view_environment = None'
p116
sI423
S'        self._custom_commit = None'
p117
sI424
S'        self._custom_rollback = None'
p118
sI425
S"        self.generic_patterns = ['*']"
p119
ssg85
S'(f=<function save_new_book>)'
p120
sg87
S'<lambda>'
p121
sa(dp122
g64
S'C:\\Users\\Ignacio\\Desktop\\CMPS183\\Final_Project\\web2py\\applications\\final_project\\controllers\\api.py'
p123
sg66
(dp124
S'books'
p125
g107
ssg72
I48
sg73
(dp126
I43
S''
sI44
S''
sI45
S'        print("books belinging to that tag", list_books_for_tag)'
p127
sI46
S'        db.tags.update_or_insert('
p128
sI47
S'            db.tags.id == tag_id,'
p129
sI48
S'            books = list_books_for_tag'
p130
sI49
S"            # books = ['sdzx']"
p131
sI50
S'            )'
p132
sI51
S'    #         name = tag,'
p133
sI52
S'    #         # book = book reference'
p134
ssg85
S'()'
p135
sg87
S'save_new_book'
p136
sa(dp137
g64
S'C:\\Users\\Ignacio\\Desktop\\CMPS183\\Final_Project\\web2py\\gluon\\packages\\dal\\pydal\\objects.py'
p138
sg66
(dp139
S'record.update_record'
p140
S'<pydal.helpers.classes.RecordUpdater object>'
p141
sS'record'
p142
S"<Row {'books': None, 'id': 65L, 'name': 'k'}>"
p143
sS'values'
p144
S"{'books': ['aaa', 30L]}"
p145
ssg72
I826
sg73
(dp146
I821
S'        elif isinstance(_key, dict):'
p147
sI822
S'            record = self(**_key)'
p148
sI823
S'        else:'
p149
sI824
S'            record = self(_key)'
p150
sI825
S'        if record:'
p151
sI826
S'            record.update_record(**values)'
p152
sI827
S'            newid = None'
p153
sI828
S'        else:'
p154
sI829
S'            newid = self.insert(**values)'
p155
sI830
S'        return newid'
p156
ssg85
S'(self=<Table tags (id, name, books)>, _key=<Query ("tags"."id" = 65)>, **values={\'books\': [\'aaa\', 30L]})'
p157
sg87
S'update_or_insert'
p158
sa(dp159
g64
S'C:\\Users\\Ignacio\\Desktop\\CMPS183\\Final_Project\\web2py\\gluon\\packages\\dal\\pydal\\helpers\\classes.py'
p160
sg66
(dp161
S'newfields'
p162
S"{'books': ['aaa', 30L]}"
p163
ssg72
I363
sg73
(dp164
I358
S'        newfields = fields or dict(colset)'
p165
sI359
S'        for fieldname in list(newfields.keys()):'
p166
sI360
S"            if fieldname not in table.fields or table[fieldname].type == 'id':"
p167
sI361
S'                del newfields[fieldname]'
p168
sI362
S'        table._db(table._id == id, ignore_common_filters=True).update('
p169
sI363
S'            **newfields'
p170
sI364
S'        )'
p171
sI365
S'        colset.update(newfields)'
p172
sI366
S'        return colset'
p173
sI367
S''
ssg85
S"(self=<pydal.helpers.classes.RecordUpdater object>, **fields={'books': ['aaa', 30L]})"
p174
sg87
S'__call__'
p175
sa(dp176
g64
S'C:\\Users\\Ignacio\\Desktop\\CMPS183\\Final_Project\\web2py\\gluon\\packages\\dal\\pydal\\objects.py'
p177
sg66
(dp178
S'self.query'
p179
S'<Query ("tags"."id" = 65)>'
p180
sS'db._adapter'
p181
S'<pydal.adapters.sqlite.SQLite object>'
p182
sS'self'
p183
S'<Set ("tags"."id" = 65)>'
p184
sS'db'
p185
S'<DAL uri="sqlite://storage.sqlite">'
p186
sS'ret'
p187
g107
sS'row.op_values'
p188
S"<bound method OpRow.op_values of <OpRow {'books': ['aaa', 30L]}>>"
p189
sS'table'
p190
S'<Table tags (id, name, books)>'
p191
sS'db._adapter.update'
p192
S'<bound method SQLite.update of <pydal.adapters.sqlite.SQLite object>>'
p193
sS'row'
p194
S"<OpRow {'books': ['aaa', 30L]}>"
p195
ssg72
I2434
sg73
(dp196
I2432
S'        if any(f(self, row) for f in table._before_update):'
p197
sI2433
S'            return 0'
p198
sI2434
S'        ret = db._adapter.update(table, self.query, row.op_values())'
p199
sI2435
S'        ret and [f(self, row) for f in table._after_update]'
p200
sI2436
S'        return ret'
p201
sI2437
S''
sI2438
S'    def update_naive(self, **update_fields):'
p202
sI2429
S'        row = table._fields_and_values_for_update(update_fields)'
p203
sI2430
S'        if not row._values:'
p204
sI2431
S'            raise ValueError("No fields to update")'
p205
ssg85
S'(self=<Set ("tags"."id" = 65)>, **update_fields={\'books\': [\'aaa\', 30L]})'
p206
sg87
S'update'
p207
sa(dp208
g64
S'C:\\Users\\Ignacio\\Desktop\\CMPS183\\Final_Project\\web2py\\gluon\\packages\\dal\\pydal\\adapters\\base.py'
p209
sg66
(dp210
S'self._update'
p211
S'<bound method SQLite._update of <pydal.adapters.sqlite.SQLite object>>'
p212
sS'fields'
p213
S"[(<pydal.objects.Field object>, ['aaa', 30L])]"
p214
sS'self'
p215
S'<pydal.adapters.sqlite.SQLite object>'
p216
sS'sql'
p217
g107
sS'query'
p218
S'<Query ("tags"."id" = 65)>'
p219
sS'table'
p220
S'<Table tags (id, name, books)>'
p221
ssg72
I517
sg73
(dp222
I512
S'                self.expand(value, field.type, query_env=query_env))'
p223
sI513
S'            for (field, value) in fields])'
p224
sI514
S'        return self.dialect.update(table, sql_v, sql_q)'
p225
sI515
S''
sI516
S'    def update(self, table, query, fields):'
p226
sI517
S'        sql = self._update(table, query, fields)'
p227
sI518
S'        try:'
p228
sI519
S'            self.execute(sql)'
p229
sI520
S'        except:'
p230
sI521
S'            e = sys.exc_info()[1]'
p231
ssg85
S'(self=<pydal.adapters.sqlite.SQLite object>, table=<Table tags (id, name, books)>, query=<Query ("tags"."id" = 65)>, fields=[(<pydal.objects.Field object>, [\'aaa\', 30L])])'
p232
sg87
g207
sa(dp233
g64
S'C:\\Users\\Ignacio\\Desktop\\CMPS183\\Final_Project\\web2py\\gluon\\packages\\dal\\pydal\\adapters\\base.py'
p234
sg66
(dp235
S'field'
p236
S'<pydal.objects.Field object>'
p237
sS'value'
p238
S"['aaa', 30L]"
p239
sS'fields'
p240
S"[(<pydal.objects.Field object>, ['aaa', 30L])]"
p241
ssg72
I513
sg73
(dp242
I512
S'                self.expand(value, field.type, query_env=query_env))'
p243
sI513
S'            for (field, value) in fields])'
p244
sI514
S'        return self.dialect.update(table, sql_v, sql_q)'
p245
sI515
S''
sI516
S'    def update(self, table, query, fields):'
p246
sI517
S'        sql = self._update(table, query, fields)'
p247
sI508
S'                query = self.common_filter(query, [table])'
p248
sI509
S'            sql_q = self.expand(query, query_env=query_env)'
p249
sI510
S"        sql_v = ','.join(["
p250
sI511
S"            '%s=%s' % (field._rname,"
p251
ssg85
S'(self=<pydal.adapters.sqlite.SQLite object>, table=<Table tags (id, name, books)>, query=<Query ("tags"."id" = 65)>, fields=[(<pydal.objects.Field object>, [\'aaa\', 30L])])'
p252
sg87
S'_update'
p253
sa(dp254
g64
S'C:\\Users\\Ignacio\\Desktop\\CMPS183\\Final_Project\\web2py\\gluon\\packages\\dal\\pydal\\adapters\\base.py'
p255
sg66
(dp256
S'self.represent'
p257
S'<bound method SQLite.represent of <pydal.adapters.sqlite.SQLite object>>'
p258
sS'rv'
p259
g107
sS'expression'
p260
S"['aaa', 30L]"
p261
sS'self'
p262
S'<pydal.adapters.sqlite.SQLite object>'
p263
sS'field_type'
p264
S"'list:reference book'"
p265
ssg72
I445
sg73
(dp266
I448
S'                          for item in expression)'
p267
sI449
S'        elif isinstance(expression, bool):'
p268
sI440
S'                    op = op[:-1]'
p269
sI441
S"                rv = '(%s)' % op"
p270
sI442
S'            else:'
p271
sI443
S'                rv = op()'
p272
sI444
S'        elif field_type:'
p273
sI445
S'            rv = self.represent(expression, field_type)'
p274
sI446
S'        elif isinstance(expression, (list, tuple)):'
p275
sI447
S"            rv = ','.join(self.represent(item, field_type)"
p276
ssg85
S"(self=<pydal.adapters.sqlite.SQLite object>, expression=['aaa', 30L], field_type='list:reference book', colnames=False, query_env={'current_scope': ['tags']})"
p277
sg87
S'_expand'
p278
sa(dp279
g64
S'C:\\Users\\Ignacio\\Desktop\\CMPS183\\Final_Project\\web2py\\gluon\\packages\\dal\\pydal\\adapters\\base.py'
p280
sg66
(dp281
S'field_type'
p282
S"'list:reference book'"
p283
sS'obj'
p284
S"['aaa', 30L]"
p285
sS'self'
p286
S'<pydal.adapters.sqlite.SQLite object>'
p287
sS'global SQLAdapter'
p288
S"<class 'pydal.adapters.base.SQLAdapter'>"
p289
sS').represent'
p290
S'<bound method SQLite.represent of <pydal.adapters.sqlite.SQLite object>>'
p291
sS'builtinsuper'
p292
S"<type 'super'>"
p293
ssg72
I382
sg73
(dp294
I384
S'    def adapt(self, obj):'
p295
sI385
S'        return "\'%s\'" % obj.replace("\'", "\'\'")'
p296
sI386
S''
sI377
S"        self.execute('SELECT 1;')"
p297
sI378
S''
sI379
S'    def represent(self, obj, field_type):'
p298
sI380
S'        if isinstance(obj, (Expression, Field)):'
p299
sI381
S'            return str(obj)'
p300
sI382
S'        return super(SQLAdapter, self).represent(obj, field_type)'
p301
sI383
S''
ssg85
S"(self=<pydal.adapters.sqlite.SQLite object>, obj=['aaa', 30L], field_type='list:reference book')"
p302
sg87
S'represent'
p303
sa(dp304
g64
S'C:\\Users\\Ignacio\\Desktop\\CMPS183\\Final_Project\\web2py\\gluon\\packages\\dal\\pydal\\adapters\\base.py'
p305
sg66
(dp306
S'self.representer'
p307
S'<pydal.representers.sqlite.SQLiteRepresenter object>'
p308
sS'self'
p309
S'<pydal.adapters.sqlite.SQLite object>'
p310
sS'field_type'
p311
S"'list:reference book'"
p312
sS'obj'
p313
S"['aaa', 30L]"
p314
sS'self.representer.represent'
p315
S'<bound method SQLiteRepresenter.represent of <pydal.representers.sqlite.SQLiteRepresenter object>>'
p316
ssg72
I336
sg73
(dp317
I331
S'        return value'
p318
sI332
S''
sI333
S'    def represent(self, obj, field_type):'
p319
sI334
S'        if isinstance(obj, CALLABLETYPES):'
p320
sI335
S'            obj = obj()'
p321
sI336
S'        return self.representer.represent(obj, field_type)'
p322
sI337
S''
sI338
S'    def _drop_table_cleanup(self, table):'
p323
sI339
S'        del self.db[table._tablename]'
p324
sI340
S'        del self.db.tables[self.db.tables.index(table._tablename)]'
p325
ssg85
S"(self=<pydal.adapters.sqlite.SQLite object>, obj=['aaa', 30L], field_type='list:reference book')"
p326
sg87
g303
sa(dp327
g64
S'C:\\Users\\Ignacio\\Desktop\\CMPS183\\Final_Project\\web2py\\gluon\\packages\\dal\\pydal\\representers\\__init__.py'
p328
sg66
(dp329
S'field_type'
p330
S"'list:reference book'"
p331
sS'rv'
p332
S"['aaa', 30L]"
p333
sS'self'
p334
S'<pydal.representers.sqlite.SQLiteRepresenter object>'
p335
sS'self.get_representer_for_type'
p336
S'<bound method SQLiteRepresenter.get_representer_...al.representers.sqlite.SQLiteRepresenter object>>'
p337
ssg72
I251
sg73
(dp338
I246
S'        if pre_end:'
p339
sI247
S'            return value'
p340
sI248
S'        repr_type, rv = self.get_representer_for_instance(value)('
p341
sI249
S'            value, field_type)'
p342
sI250
S'        if repr_type:'
p343
sI251
S'            rv = self.get_representer_for_type(field_type)(rv, field_type)'
p344
sI252
S'        return rv'
p345
sI253
S''
sI254
S''
sI255
S'from .base import BaseRepresenter, SQLRepresenter, NoSQLRepresenter'
p346
ssg85
S"(self=<pydal.representers.sqlite.SQLiteRepresenter object>, value=['aaa', 30L], field_type='list:reference book')"
p347
sg87
g303
sa(dp348
g64
S'C:\\Users\\Ignacio\\Desktop\\CMPS183\\Final_Project\\web2py\\gluon\\packages\\dal\\pydal\\representers\\__init__.py'
p349
sg66
(dp350
S'value'
p351
S"['aaa', 30L]"
p352
sS'self'
p353
S'<pydal.representers.TReprMethodWrapper object>'
p354
sS'self.call'
p355
S'<bound method TReprMethodWrapper._call of <pydal.representers.TReprMethodWrapper object>>'
p356
sS'self.adapt'
p357
S'<bound method TReprMethodWrapper._no_adapt of <pydal.representers.TReprMethodWrapper object>>'
p358
sS'field_type'
p359
S"'list:reference book'"
p360
ssg72
I139
sg73
(dp361
I134
S''
sI135
S'    def _call(self, value, field_type):'
p362
sI136
S'        return self.inner_call(value)'
p363
sI137
S''
sI138
S'    def __call__(self, value, field_type):'
p364
sI139
S'        return self.adapt(self.call(value, field_type))'
p365
sI140
S''
sI141
S''
sI142
S'class IReprMethodWrapper(object):'
p366
sI143
S'    def __init__(self, representer, obj):'
p367
ssg85
S"(self=<pydal.representers.TReprMethodWrapper object>, value=['aaa', 30L], field_type='list:reference book')"
p368
sg87
g175
sa(dp369
g64
S'C:\\Users\\Ignacio\\Desktop\\CMPS183\\Final_Project\\web2py\\gluon\\packages\\dal\\pydal\\representers\\__init__.py'
p370
sg66
(dp371
S'self.inner_call'
p372
S'<bound method TReprMethodWrapper._inner_call of <pydal.representers.TReprMethodWrapper object>>'
p373
sS'self'
p374
S'<pydal.representers.TReprMethodWrapper object>'
p375
sS'value'
p376
S"['aaa', 30L]"
p377
ssg72
I136
sg73
(dp378
I131
S'    def _call_with_extras(self, value, field_type):'
p379
sI132
S'        extras = self.extra(self.representer, field_type)'
p380
sI133
S'        return self.inner_call(value, **extras)'
p381
sI134
S''
sI135
S'    def _call(self, value, field_type):'
p382
sI136
S'        return self.inner_call(value)'
p383
sI137
S''
sI138
S'    def __call__(self, value, field_type):'
p384
sI139
S'        return self.adapt(self.call(value, field_type))'
p385
sI140
S''
ssg85
S"(self=<pydal.representers.TReprMethodWrapper object>, value=['aaa', 30L], field_type='list:reference book')"
p386
sg87
S'_call'
p387
sa(dp388
g64
S'C:\\Users\\Ignacio\\Desktop\\CMPS183\\Final_Project\\web2py\\gluon\\packages\\dal\\pydal\\representers\\__init__.py'
p389
sg66
(dp390
S'self.obj.f'
p391
S'<function _list_reference>'
p392
sS'self.obj'
p393
S'<pydal.representers.for_type object>'
p394
sS'self'
p395
S'<pydal.representers.TReprMethodWrapper object>'
p396
sS'value'
p397
S"['aaa', 30L]"
p398
sS'self.representer'
p399
S'<pydal.representers.sqlite.SQLiteRepresenter object>'
p400
sS'kwargs'
p401
g19
ssg72
I124
sg73
(dp402
I128
S'            value = value.encode(self.representer.adapter.db_codec)'
p403
sI119
S''
sI120
S'    def _no_adapt(self, value):'
p404
sI121
S'        return value'
p405
sI122
S''
sI123
S'    def _inner_call(self, value, **kwargs):'
p406
sI124
S'        return self.obj.f(self.representer, value, **kwargs)'
p407
sI125
S''
sI126
S'    def _inner_call_with_encode(self, value, **kwargs):'
p408
sI127
S'        if isinstance(value, unicode):'
p409
ssg85
S"(self=<pydal.representers.TReprMethodWrapper object>, value=['aaa', 30L], **kwargs={})"
p410
sg87
S'_inner_call'
p411
sa(dp412
g64
S'C:\\Users\\Ignacio\\Desktop\\CMPS183\\Final_Project\\web2py\\gluon\\packages\\dal\\pydal\\representers\\base.py'
p413
sg66
(dp414
S'self'
p415
S'<pydal.representers.sqlite.SQLiteRepresenter object>'
p416
sS'self.registered_t'
p417
S'defaultdict(<function <lambda> at 0x0000000004C4...ReprMethodWrapper object at 0x0000000004C676D8>})'
p418
sS'value'
p419
S"['aaa', 30L]"
p420
ssg72
I93
sg73
(dp421
I96
S'class JSONRepresenter(Representer):'
p422
sI97
S"    @for_type('json', encode=True)"
p423
sI88
S'            value = list(map(str, value))'
p424
sI89
S'        return self._listify_elements(value)'
p425
sI90
S''
sI91
S"    @for_type('list:reference', adapt=False)"
p426
sI92
S'    def _list_reference(self, value):'
p427
sI93
S"        return self.registered_t['list:integer'](value, 'list:reference')"
p428
sI94
S''
sI95
S''
ssg85
S"(self=<pydal.representers.sqlite.SQLiteRepresenter object>, value=['aaa', 30L])"
p429
sg87
S'_list_reference'
p430
sa(dp431
g64
S'C:\\Users\\Ignacio\\Desktop\\CMPS183\\Final_Project\\web2py\\gluon\\packages\\dal\\pydal\\representers\\__init__.py'
p432
sg66
(dp433
S'value'
p434
S"['aaa', 30L]"
p435
sS'self'
p436
S'<pydal.representers.TReprMethodWrapper object>'
p437
sS'self.call'
p438
S'<bound method TReprMethodWrapper._call of <pydal.representers.TReprMethodWrapper object>>'
p439
sS'self.adapt'
p440
S'<bound method TReprMethodWrapper._adapt of <pydal.representers.TReprMethodWrapper object>>'
p441
sS'field_type'
p442
S"'list:reference'"
p443
ssg72
I139
sg73
(dp444
I134
S''
sI135
S'    def _call(self, value, field_type):'
p445
sI136
S'        return self.inner_call(value)'
p446
sI137
S''
sI138
S'    def __call__(self, value, field_type):'
p447
sI139
S'        return self.adapt(self.call(value, field_type))'
p448
sI140
S''
sI141
S''
sI142
S'class IReprMethodWrapper(object):'
p449
sI143
S'    def __init__(self, representer, obj):'
p450
ssg85
S"(self=<pydal.representers.TReprMethodWrapper object>, value=['aaa', 30L], field_type='list:reference')"
p451
sg87
g175
sa(dp452
g64
S'C:\\Users\\Ignacio\\Desktop\\CMPS183\\Final_Project\\web2py\\gluon\\packages\\dal\\pydal\\representers\\__init__.py'
p453
sg66
(dp454
S'self.inner_call'
p455
S'<bound method TReprMethodWrapper._inner_call of <pydal.representers.TReprMethodWrapper object>>'
p456
sS'self'
p457
S'<pydal.representers.TReprMethodWrapper object>'
p458
sS'value'
p459
S"['aaa', 30L]"
p460
ssg72
I136
sg73
(dp461
I131
S'    def _call_with_extras(self, value, field_type):'
p462
sI132
S'        extras = self.extra(self.representer, field_type)'
p463
sI133
S'        return self.inner_call(value, **extras)'
p464
sI134
S''
sI135
S'    def _call(self, value, field_type):'
p465
sI136
S'        return self.inner_call(value)'
p466
sI137
S''
sI138
S'    def __call__(self, value, field_type):'
p467
sI139
S'        return self.adapt(self.call(value, field_type))'
p468
sI140
S''
ssg85
S"(self=<pydal.representers.TReprMethodWrapper object>, value=['aaa', 30L], field_type='list:reference')"
p469
sg87
g387
sa(dp470
g64
S'C:\\Users\\Ignacio\\Desktop\\CMPS183\\Final_Project\\web2py\\gluon\\packages\\dal\\pydal\\representers\\__init__.py'
p471
sg66
(dp472
S'self.obj.f'
p473
S'<function _list_integer>'
p474
sS'self.obj'
p475
S'<pydal.representers.for_type object>'
p476
sS'self'
p477
S'<pydal.representers.TReprMethodWrapper object>'
p478
sS'value'
p479
S"['aaa', 30L]"
p480
sS'self.representer'
p481
S'<pydal.representers.sqlite.SQLiteRepresenter object>'
p482
sS'kwargs'
p483
g19
ssg72
I124
sg73
(dp484
I128
S'            value = value.encode(self.representer.adapter.db_codec)'
p485
sI119
S''
sI120
S'    def _no_adapt(self, value):'
p486
sI121
S'        return value'
p487
sI122
S''
sI123
S'    def _inner_call(self, value, **kwargs):'
p488
sI124
S'        return self.obj.f(self.representer, value, **kwargs)'
p489
sI125
S''
sI126
S'    def _inner_call_with_encode(self, value, **kwargs):'
p490
sI127
S'        if isinstance(value, unicode):'
p491
ssg85
S"(self=<pydal.representers.TReprMethodWrapper object>, value=['aaa', 30L], **kwargs={})"
p492
sg87
g411
sa(dp493
g64
S'C:\\Users\\Ignacio\\Desktop\\CMPS183\\Final_Project\\web2py\\gluon\\packages\\dal\\pydal\\representers\\base.py'
p494
sg66
(dp495
S'builtinint'
p496
S"<type 'int'>"
p497
sS'values'
p498
S"['aaa', 30L]"
p499
sS'val'
p500
S'30L'
p501
sS'builtinlist'
p502
S"<type 'list'>"
p503
sS'builtinmap'
p504
S'<built-in function map>'
p505
ssg72
I75
sg73
(dp506
I70
S'        return bar_encode(elements)'
p507
sI71
S''
sI72
S"    @for_type('list:integer')"
p508
sI73
S'    def _list_integer(self, value):'
p509
sI74
S'        values = self._ensure_list(value)'
p510
sI75
S"        values = list(map(int, [val for val in values if val != '']))"
p511
sI76
S'        return self._listify_elements(value)'
p512
sI77
S''
sI78
S"    @for_type('list:string')"
p513
sI79
S'    def _list_string(self, value):'
p514
ssg85
S"(self=<pydal.representers.sqlite.SQLiteRepresenter object>, value=['aaa', 30L])"
p515
sg87
S'_list_integer'
p516
sasS'pyver'
p517
S'Python 2.7.10: C:\\Python27\\python.exe (prefix: C:\\Python27)'
p518
sS'session'
p519
g59
(S'sT\x08\x00\x00<div><table><tr><td style="font-weight:bold;vertical-align:top;">auth</td><td style="vertical-align:top;">:</td><td><div><table><tr><td style="font-weight:bold;vertical-align:top;">expiration</td><td style="vertical-align:top;">:</td><td><div>3600</div></td></tr><tr><td style="font-weight:bold;vertical-align:top;">hmac_key</td><td style="vertical-align:top;">:</td><td><div>7105444a-dc99-449c-a3ee-b0e8a374bcc4</div></td></tr><tr><td style="font-weight:bold;vertical-align:top;">last_visit</td><td style="vertical-align:top;">:</td><td><div>datetime.datetime(2019, 6, 6, 1, 11, 43, 158000)</div></td></tr><tr><td style="font-weight:bold;vertical-align:top;">user</td><td style="vertical-align:top;">:</td><td><div><table><tr><td style="font-weight:bold;vertical-align:top;">email</td><td style="vertical-align:top;">:</td><td><div>uki@ucsc.edu</div></td></tr><tr><td style="font-weight:bold;vertical-align:top;">first_name</td><td style="vertical-align:top;">:</td><td><div>uki</div></td></tr><tr><td style="font-weight:bold;vertical-align:top;">id</td><td style="vertical-align:top;">:</td><td><div>1L</div></td></tr><tr><td style="font-weight:bold;vertical-align:top;">last_name</td><td style="vertical-align:top;">:</td><td><div>lav</div></td></tr><tr><td style="font-weight:bold;vertical-align:top;">registration_id</td><td style="vertical-align:top;">:</td><td><div></div></td></tr><tr><td style="font-weight:bold;vertical-align:top;">registration_key</td><td style="vertical-align:top;">:</td><td><div></div></td></tr><tr><td style="font-weight:bold;vertical-align:top;">reset_password_key</td><td style="vertical-align:top;">:</td><td><div></div></td></tr></table></div></td></tr><tr><td style="font-weight:bold;vertical-align:top;">user_groups</td><td style="vertical-align:top;">:</td><td><div><table><tr><td style="font-weight:bold;vertical-align:top;">1</td><td style="vertical-align:top;">:</td><td><div>user_1</div></td></tr></table></div></td></tr></table></div></td></tr><tr><td style="font-weight:bold;vertical-align:top;">flash</td><td style="vertical-align:top;">:</td><td><div>None</div></td></tr></table></div>'
tRp520
sS'etype'
p521
S"<type 'exceptions.ValueError'>"
p522
sS'date'
p523
S'Thu Jun 06 01:16:04 2019'
p524
sS'response'
p525
g59
(S's\xce \x00\x00<div><table><tr><td style="font-weight:bold;vertical-align:top;">body</td><td style="vertical-align:top;">:</td><td><div>&lt;cStringIO.StringO object at 0x0000000004C61E30&gt;</div></td></tr><tr><td style="font-weight:bold;vertical-align:top;">cookies</td><td style="vertical-align:top;">:</td><td><div><table><tr><td style="font-weight:bold;vertical-align:top;">session_id_final_project</td><td style="vertical-align:top;">:</td><td><div>127.0.0.1-f1cc6058-224d-4cd6-a963-a62af75786c8<table><tr><td style="font-weight:bold;vertical-align:top;">comment</td><td style="vertical-align:top;">:</td><td><div></div></td></tr><tr><td style="font-weight:bold;vertical-align:top;">domain</td><td style="vertical-align:top;">:</td><td><div></div></td></tr><tr><td style="font-weight:bold;vertical-align:top;">expires</td><td style="vertical-align:top;">:</td><td><div></div></td></tr><tr><td style="font-weight:bold;vertical-align:top;">httponly</td><td style="vertical-align:top;">:</td><td><div></div></td></tr><tr><td style="font-weight:bold;vertical-align:top;">max-age</td><td style="vertical-align:top;">:</td><td><div></div></td></tr><tr><td style="font-weight:bold;vertical-align:top;">path</td><td style="vertical-align:top;">:</td><td><div>/</div></td></tr><tr><td style="font-weight:bold;vertical-align:top;">samesite</td><td style="vertical-align:top;">:</td><td><div></div></td></tr><tr><td style="font-weight:bold;vertical-align:top;">secure</td><td style="vertical-align:top;">:</td><td><div></div></td></tr><tr><td style="font-weight:bold;vertical-align:top;">version</td><td style="vertical-align:top;">:</td><td><div></div></td></tr></table></div></td></tr></table></div></td></tr><tr><td style="font-weight:bold;vertical-align:top;">delimiters</td><td style="vertical-align:top;">:</td><td><div><table><tr><td><div>{{</div></td></tr><tr><td><div>}}</div></td></tr></table></div></td></tr><tr><td style="font-weight:bold;vertical-align:top;">files</td><td style="vertical-align:top;">:</td><td><div><table></table></div></td></tr><tr><td style="font-weight:bold;vertical-align:top;">flash</td><td style="vertical-align:top;">:</td><td><div></div></td></tr><tr><td style="font-weight:bold;vertical-align:top;">form_label_separator</td><td style="vertical-align:top;">:</td><td><div></div></td></tr><tr><td style="font-weight:bold;vertical-align:top;">formstyle</td><td style="vertical-align:top;">:</td><td><div>bootstrap4_inline</div></td></tr><tr><td style="font-weight:bold;vertical-align:top;">generic_patterns</td><td style="vertical-align:top;">:</td><td><div><table><tr><td><div>*</div></td></tr></table></div></td></tr><tr><td style="font-weight:bold;vertical-align:top;">google_analytics_id</td><td style="vertical-align:top;">:</td><td><div>None</div></td></tr><tr><td style="font-weight:bold;vertical-align:top;">headers</td><td style="vertical-align:top;">:</td><td><div><table><tr><td style="font-weight:bold;vertical-align:top;">X-Powered-By</td><td style="vertical-align:top;">:</td><td><div>web2py</div></td></tr></table></div></td></tr><tr><td style="font-weight:bold;vertical-align:top;">menu</td><td style="vertical-align:top;">:</td><td><div><table><tr><td><div><table><tr><td><div>Inicio</div></td></tr><tr><td><div>False</div></td></tr><tr><td><div>/</div></td></tr><tr><td><div><table></table></div></td></tr></table></div></td></tr><tr><td><div><table><tr><td><div>Books</div></td></tr><tr><td><div>False</div></td></tr><tr><td><div>/books</div></td></tr><tr><td><div><table></table></div></td></tr></table></div></td></tr><tr><td><div><table><tr><td><div>Add Book</div></td></tr><tr><td><div>False</div></td></tr><tr><td><div>/books</div></td></tr><tr><td><div><table></table></div></td></tr></table></div></td></tr><tr><td><div><table><tr><td><div>Add Book2</div></td></tr><tr><td><div>False</div></td></tr><tr><td><div>/new_book</div></td></tr><tr><td><div><table></table></div></td></tr></table></div></td></tr><tr><td><div><table><tr><td><div>Perfil</div></td></tr><tr><td><div>False</div></td></tr><tr><td><div>/profile</div></td></tr><tr><td><div><table></table></div></td></tr></table></div></td></tr><tr><td><div><table><tr><td><div>Tags (testing)</div></td></tr><tr><td><div>False</div></td></tr><tr><td><div>/tags</div></td></tr><tr><td><div><table></table></div></td></tr></table></div></td></tr></table></div></td></tr><tr><td style="font-weight:bold;vertical-align:top;">meta</td><td style="vertical-align:top;">:</td><td><div><table><tr><td style="font-weight:bold;vertical-align:top;">author</td><td style="vertical-align:top;">:</td><td><div>Your Name &lt;you@example.com&gt;</div></td></tr><tr><td style="font-weight:bold;vertical-align:top;">description</td><td style="vertical-align:top;">:</td><td><div>a cool new app</div></td></tr><tr><td style="font-weight:bold;vertical-align:top;">generator</td><td style="vertical-align:top;">:</td><td><div>Web2py Web Framework</div></td></tr><tr><td style="font-weight:bold;vertical-align:top;">keywords</td><td style="vertical-align:top;">:</td><td><div><table><tr><td><div>web2py</div></td></tr><tr><td><div>python</div></td></tr><tr><td><div>framework</div></td></tr></table></div></td></tr></table></div></td></tr><tr><td style="font-weight:bold;vertical-align:top;">models_to_run</td><td style="vertical-align:top;">:</td><td><div><table><tr><td><div>^\\w+\\.py$</div></td></tr><tr><td><div>^api/\\w+\\.py$</div></td></tr><tr><td><div>^api/save_new_book/\\w+\\.py$</div></td></tr></table></div></td></tr><tr><td style="font-weight:bold;vertical-align:top;">postprocessing</td><td style="vertical-align:top;">:</td><td><div><table></table></div></td></tr><tr><td style="font-weight:bold;vertical-align:top;">session_client</td><td style="vertical-align:top;">:</td><td><div>127.0.0.1</div></td></tr><tr><td style="font-weight:bold;vertical-align:top;">session_cookie_compression_level</td><td style="vertical-align:top;">:</td><td><div>None</div></td></tr><tr><td style="font-weight:bold;vertical-align:top;">session_cookie_expires</td><td style="vertical-align:top;">:</td><td><div>None</div></td></tr><tr><td style="font-weight:bold;vertical-align:top;">session_data_name</td><td style="vertical-align:top;">:</td><td><div>session_data_final_project</div></td></tr><tr><td style="font-weight:bold;vertical-align:top;">session_file</td><td style="vertical-align:top;">:</td><td><div>&lt;open file &#x27;C:\\\\Users\\\\Ignacio\\\\Desktop\\\\CMPS183\\\\Final_Project\\\\web2py\\\\applications\\\\final_project\\\\sessions\\\\18f\\\\1ba\\\\127.0.0.1-f1cc6058-224d-4cd6-a963-a62af75786c8&#x27;, mode &#x27;rb+&#x27; at 0x0000000004594B70&gt;</div></td></tr><tr><td style="font-weight:bold;vertical-align:top;">session_filename</td><td style="vertical-align:top;">:</td><td><div>C:\\Users\\Ignacio\\Desktop\\CMPS183\\Final_Project\\web2py\\applications\\final_project\\sessions\\127.0.0.1-f1cc6058-224d-4cd6-a963-a62af75786c8</div></td></tr><tr><td style="font-weight:bold;vertical-align:top;">session_hash</td><td style="vertical-align:top;">:</td><td><div>7fd5a45a18bbe70e04d0a1adbbf144b5</div></td></tr><tr><td style="font-weight:bold;vertical-align:top;">session_id</td><td style="vertical-align:top;">:</td><td><div>127.0.0.1-f1cc6058-224d-4cd6-a963-a62af75786c8</div></td></tr><tr><td style="font-weight:bold;vertical-align:top;">session_id_name</td><td style="vertical-align:top;">:</td><td><div>session_id_final_project</div></td></tr><tr><td style="font-weight:bold;vertical-align:top;">session_locked</td><td style="vertical-align:top;">:</td><td><div>True</div></td></tr><tr><td style="font-weight:bold;vertical-align:top;">session_masterapp</td><td style="vertical-align:top;">:</td><td><div>final_project</div></td></tr><tr><td style="font-weight:bold;vertical-align:top;">session_new</td><td style="vertical-align:top;">:</td><td><div>False</div></td></tr><tr><td style="font-weight:bold;vertical-align:top;">session_storage_type</td><td style="vertical-align:top;">:</td><td><div>file</div></td></tr><tr><td style="font-weight:bold;vertical-align:top;">show_toolbar</td><td style="vertical-align:top;">:</td><td><div>False</div></td></tr><tr><td style="font-weight:bold;vertical-align:top;">status</td><td style="vertical-align:top;">:</td><td><div>200</div></td></tr><tr><td style="font-weight:bold;vertical-align:top;">view</td><td style="vertical-align:top;">:</td><td><div>api/save_new_book.html</div></td></tr></table></div>'
tRp526
sS'locals'
p527
(dp528
S'self'
p529
S'<pydal.representers.sqlite.SQLiteRepresenter object>'
p530
sS'values'
p531
S"['aaa', 30L]"
p532
sS'val'
p533
S'30L'
p534
sS'value'
p535
S"['aaa', 30L]"
p536
sssS'traceback'
p537
S'Traceback (most recent call last):\n  File "C:\\Users\\Ignacio\\Desktop\\CMPS183\\Final_Project\\web2py\\gluon\\restricted.py", line 219, in restricted\n    exec(ccode, environment)\n  File "C:\\Users\\Ignacio\\Desktop\\CMPS183\\Final_Project\\web2py\\applications\\final_project\\controllers/api.py", line 87, in <module>\n  File "C:\\Users\\Ignacio\\Desktop\\CMPS183\\Final_Project\\web2py\\gluon\\globals.py", line 421, in <lambda>\n    self._caller = lambda f: f()\n  File "C:\\Users\\Ignacio\\Desktop\\CMPS183\\Final_Project\\web2py\\applications\\final_project\\controllers/api.py", line 48, in save_new_book\n    books = list_books_for_tag\n  File "C:\\Users\\Ignacio\\Desktop\\CMPS183\\Final_Project\\web2py\\gluon\\packages\\dal\\pydal\\objects.py", line 826, in update_or_insert\n    record.update_record(**values)\n  File "C:\\Users\\Ignacio\\Desktop\\CMPS183\\Final_Project\\web2py\\gluon\\packages\\dal\\pydal\\helpers\\classes.py", line 363, in __call__\n    **newfields\n  File "C:\\Users\\Ignacio\\Desktop\\CMPS183\\Final_Project\\web2py\\gluon\\packages\\dal\\pydal\\objects.py", line 2434, in update\n    ret = db._adapter.update(table, self.query, row.op_values())\n  File "C:\\Users\\Ignacio\\Desktop\\CMPS183\\Final_Project\\web2py\\gluon\\packages\\dal\\pydal\\adapters\\base.py", line 517, in update\n    sql = self._update(table, query, fields)\n  File "C:\\Users\\Ignacio\\Desktop\\CMPS183\\Final_Project\\web2py\\gluon\\packages\\dal\\pydal\\adapters\\base.py", line 513, in _update\n    for (field, value) in fields])\n  File "C:\\Users\\Ignacio\\Desktop\\CMPS183\\Final_Project\\web2py\\gluon\\packages\\dal\\pydal\\adapters\\base.py", line 445, in _expand\n    rv = self.represent(expression, field_type)\n  File "C:\\Users\\Ignacio\\Desktop\\CMPS183\\Final_Project\\web2py\\gluon\\packages\\dal\\pydal\\adapters\\base.py", line 382, in represent\n    return super(SQLAdapter, self).represent(obj, field_type)\n  File "C:\\Users\\Ignacio\\Desktop\\CMPS183\\Final_Project\\web2py\\gluon\\packages\\dal\\pydal\\adapters\\base.py", line 336, in represent\n    return self.representer.represent(obj, field_type)\n  File "C:\\Users\\Ignacio\\Desktop\\CMPS183\\Final_Project\\web2py\\gluon\\packages\\dal\\pydal\\representers\\__init__.py", line 251, in represent\n    rv = self.get_representer_for_type(field_type)(rv, field_type)\n  File "C:\\Users\\Ignacio\\Desktop\\CMPS183\\Final_Project\\web2py\\gluon\\packages\\dal\\pydal\\representers\\__init__.py", line 139, in __call__\n    return self.adapt(self.call(value, field_type))\n  File "C:\\Users\\Ignacio\\Desktop\\CMPS183\\Final_Project\\web2py\\gluon\\packages\\dal\\pydal\\representers\\__init__.py", line 136, in _call\n    return self.inner_call(value)\n  File "C:\\Users\\Ignacio\\Desktop\\CMPS183\\Final_Project\\web2py\\gluon\\packages\\dal\\pydal\\representers\\__init__.py", line 124, in _inner_call\n    return self.obj.f(self.representer, value, **kwargs)\n  File "C:\\Users\\Ignacio\\Desktop\\CMPS183\\Final_Project\\web2py\\gluon\\packages\\dal\\pydal\\representers\\base.py", line 93, in _list_reference\n    return self.registered_t[\'list:integer\'](value, \'list:reference\')\n  File "C:\\Users\\Ignacio\\Desktop\\CMPS183\\Final_Project\\web2py\\gluon\\packages\\dal\\pydal\\representers\\__init__.py", line 139, in __call__\n    return self.adapt(self.call(value, field_type))\n  File "C:\\Users\\Ignacio\\Desktop\\CMPS183\\Final_Project\\web2py\\gluon\\packages\\dal\\pydal\\representers\\__init__.py", line 136, in _call\n    return self.inner_call(value)\n  File "C:\\Users\\Ignacio\\Desktop\\CMPS183\\Final_Project\\web2py\\gluon\\packages\\dal\\pydal\\representers\\__init__.py", line 124, in _inner_call\n    return self.obj.f(self.representer, value, **kwargs)\n  File "C:\\Users\\Ignacio\\Desktop\\CMPS183\\Final_Project\\web2py\\gluon\\packages\\dal\\pydal\\representers\\base.py", line 75, in _list_integer\n    values = list(map(int, [val for val in values if val != \'\']))\nValueError: invalid literal for int() with base 10: \'aaa\'\n'
p538
s.