(dp1
S'output'
p2
S"<type 'exceptions.NameError'> name 'my_decorator' is not defined"
p3
sS'layer'
p4
S'C:\\Users\\Ignacio\\Desktop\\TFG\\Git\\web2py\\applications\\twitter_api\\controllers/api.py'
p5
sS'code'
p6
S'<code object <module> at 000000000487B4B0, file "C:\\Users\\Ignacio\\Desktop\\TFG\\Git\\web2py\\applications\\twitter_api\\controllers/api.py", line 1>'
p7
sS'snapshot'
p8
(dp9
S'exception'
p10
(dp11
S'__getslice__'
p12
S"<method-wrapper '__getslice__' of exceptions.NameError object>"
p13
sS'__str__'
p14
S"<method-wrapper '__str__' of exceptions.NameError object>"
p15
sS'__reduce__'
p16
S'<built-in method __reduce__ of exceptions.NameError object>'
p17
sS'__dict__'
p18
S'{}'
p19
sS'message'
p20
S'"name \'my_decorator\' is not defined"'
p21
sS'__sizeof__'
p22
S'<built-in method __sizeof__ of exceptions.NameError object>'
p23
sS'__init__'
p24
S"<method-wrapper '__init__' of exceptions.NameError object>"
p25
sS'__setattr__'
p26
S"<method-wrapper '__setattr__' of exceptions.NameError object>"
p27
sS'__reduce_ex__'
p28
S'<built-in method __reduce_ex__ of exceptions.NameError object>'
p29
sS'__new__'
p30
S'<built-in method __new__ of type object>'
p31
sS'__format__'
p32
S'<built-in method __format__ of exceptions.NameError object>'
p33
sS'__class__'
p34
S"<type 'exceptions.NameError'>"
p35
sS'__doc__'
p36
S"'Name not found globally.'"
p37
sS'__getitem__'
p38
S"<method-wrapper '__getitem__' of exceptions.NameError object>"
p39
sS'__setstate__'
p40
S'<built-in method __setstate__ of exceptions.NameError object>'
p41
sS'__getattribute__'
p42
S"<method-wrapper '__getattribute__' of exceptions.NameError object>"
p43
sS'args'
p44
S'("name \'my_decorator\' is not defined",)'
p45
sS'__subclasshook__'
p46
S'<built-in method __subclasshook__ of type object>'
p47
sS'__unicode__'
p48
S'<built-in method __unicode__ of exceptions.NameError object>'
p49
sS'__delattr__'
p50
S"<method-wrapper '__delattr__' of exceptions.NameError object>"
p51
sS'__repr__'
p52
S"<method-wrapper '__repr__' of exceptions.NameError object>"
p53
sS'__hash__'
p54
S"<method-wrapper '__hash__' of exceptions.NameError object>"
p55
ssS'evalue'
p56
S"name 'my_decorator' is not defined"
p57
sS'request'
p58
cgluon.html
XML_unpickle
p59
(S's\xae\\\x00\x00<div><table><tr><td style="font-weight:bold;vertical-align:top;">ajax</td><td style="vertical-align:top;">:</td><td><div>True</div></td></tr><tr><td style="font-weight:bold;vertical-align:top;">application</td><td style="vertical-align:top;">:</td><td><div>twitter_api</div></td></tr><tr><td style="font-weight:bold;vertical-align:top;">args</td><td style="vertical-align:top;">:</td><td><div><table></table></div></td></tr><tr><td style="font-weight:bold;vertical-align:top;">cid</td><td style="vertical-align:top;">:</td><td><div>None</div></td></tr><tr><td style="font-weight:bold;vertical-align:top;">client</td><td style="vertical-align:top;">:</td><td><div>127.0.0.1</div></td></tr><tr><td style="font-weight:bold;vertical-align:top;">controller</td><td style="vertical-align:top;">:</td><td><div>api</div></td></tr><tr><td style="font-weight:bold;vertical-align:top;">cookies</td><td style="vertical-align:top;">:</td><td><div><table><tr><td style="font-weight:bold;vertical-align:top;">session_id_twitter_api</td><td style="vertical-align:top;">:</td><td><div>127.0.0.1-ed19e4e2-666f-47a3-aeb4-1d0162a7b3bb<table><tr><td style="font-weight:bold;vertical-align:top;">comment</td><td style="vertical-align:top;">:</td><td><div></div></td></tr><tr><td style="font-weight:bold;vertical-align:top;">domain</td><td style="vertical-align:top;">:</td><td><div></div></td></tr><tr><td style="font-weight:bold;vertical-align:top;">expires</td><td style="vertical-align:top;">:</td><td><div></div></td></tr><tr><td style="font-weight:bold;vertical-align:top;">httponly</td><td style="vertical-align:top;">:</td><td><div></div></td></tr><tr><td style="font-weight:bold;vertical-align:top;">max-age</td><td style="vertical-align:top;">:</td><td><div></div></td></tr><tr><td style="font-weight:bold;vertical-align:top;">path</td><td style="vertical-align:top;">:</td><td><div></div></td></tr><tr><td style="font-weight:bold;vertical-align:top;">samesite</td><td style="vertical-align:top;">:</td><td><div></div></td></tr><tr><td style="font-weight:bold;vertical-align:top;">secure</td><td style="vertical-align:top;">:</td><td><div></div></td></tr><tr><td style="font-weight:bold;vertical-align:top;">version</td><td style="vertical-align:top;">:</td><td><div></div></td></tr></table></div></td></tr></table></div></td></tr><tr><td style="font-weight:bold;vertical-align:top;">env</td><td style="vertical-align:top;">:</td><td><div><table><tr><td style="font-weight:bold;vertical-align:top;">CONTENT_LENGTH</td><td style="vertical-align:top;">:</td><td><div>10</div></td></tr><tr><td style="font-weight:bold;vertical-align:top;">CONTENT_TYPE</td><td style="vertical-align:top;">:</td><td><div>application/x-www-form-urlencoded; charset=UTF-8</div></td></tr><tr><td style="font-weight:bold;vertical-align:top;">HTTP_ACCEPT</td><td style="vertical-align:top;">:</td><td><div>*/*</div></td></tr><tr><td style="font-weight:bold;vertical-align:top;">HTTP_ACCEPT_ENCODING</td><td style="vertical-align:top;">:</td><td><div>gzip, deflate, br</div></td></tr><tr><td style="font-weight:bold;vertical-align:top;">HTTP_ACCEPT_LANGUAGE</td><td style="vertical-align:top;">:</td><td><div>es,en;q=0.9</div></td></tr><tr><td style="font-weight:bold;vertical-align:top;">HTTP_CONNECTION</td><td style="vertical-align:top;">:</td><td><div>keep-alive</div></td></tr><tr><td style="font-weight:bold;vertical-align:top;">HTTP_CONTENT_LENGTH</td><td style="vertical-align:top;">:</td><td><div>10</div></td></tr><tr><td style="font-weight:bold;vertical-align:top;">HTTP_CONTENT_TYPE</td><td style="vertical-align:top;">:</td><td><div>application/x-www-form-urlencoded; charset=UTF-8</div></td></tr><tr><td style="font-weight:bold;vertical-align:top;">HTTP_COOKIE</td><td style="vertical-align:top;">:</td><td><div>session_id_twitter_api=127.0.0.1-ed19e4e2-666f-47a3-aeb4-1d0162a7b3bb</div></td></tr><tr><td style="font-weight:bold;vertical-align:top;">HTTP_HOST</td><td style="vertical-align:top;">:</td><td><div>127.0.0.1:8000</div></td></tr><tr><td style="font-weight:bold;vertical-align:top;">HTTP_ORIGIN</td><td style="vertical-align:top;">:</td><td><div>http://127.0.0.1:8000</div></td></tr><tr><td style="font-weight:bold;vertical-align:top;">HTTP_REFERER</td><td style="vertical-align:top;">:</td><td><div>http://127.0.0.1:8000/</div></td></tr><tr><td style="font-weight:bold;vertical-align:top;">HTTP_SEC_FETCH_MODE</td><td style="vertical-align:top;">:</td><td><div>cors</div></td></tr><tr><td style="font-weight:bold;vertical-align:top;">HTTP_SEC_FETCH_SITE</td><td style="vertical-align:top;">:</td><td><div>same-origin</div></td></tr><tr><td style="font-weight:bold;vertical-align:top;">HTTP_USER_AGENT</td><td style="vertical-align:top;">:</td><td><div>Mozilla/5.0 (Windows NT 10.0; Win64; x64) AppleWebKit/537.36 (KHTML, like Gecko) Chrome/76.0.3809.132 Safari/537.36</div></td></tr><tr><td style="font-weight:bold;vertical-align:top;">HTTP_X_REQUESTED_WITH</td><td style="vertical-align:top;">:</td><td><div>XMLHttpRequest</div></td></tr><tr><td style="font-weight:bold;vertical-align:top;">PATH_INFO</td><td style="vertical-align:top;">:</td><td><div>/api/log_on_twitter</div></td></tr><tr><td style="font-weight:bold;vertical-align:top;">QUERY_STRING</td><td style="vertical-align:top;">:</td><td><div></div></td></tr><tr><td style="font-weight:bold;vertical-align:top;">REMOTE_ADDR</td><td style="vertical-align:top;">:</td><td><div>127.0.0.1</div></td></tr><tr><td style="font-weight:bold;vertical-align:top;">REMOTE_PORT</td><td style="vertical-align:top;">:</td><td><div>59403</div></td></tr><tr><td style="font-weight:bold;vertical-align:top;">REQUEST_METHOD</td><td style="vertical-align:top;">:</td><td><div>POST</div></td></tr><tr><td style="font-weight:bold;vertical-align:top;">SCRIPT_NAME</td><td style="vertical-align:top;">:</td><td><div></div></td></tr><tr><td style="font-weight:bold;vertical-align:top;">SERVER_NAME</td><td style="vertical-align:top;">:</td><td><div>LAPTOP-L4O5O5SF</div></td></tr><tr><td style="font-weight:bold;vertical-align:top;">SERVER_PORT</td><td style="vertical-align:top;">:</td><td><div>8000</div></td></tr><tr><td style="font-weight:bold;vertical-align:top;">SERVER_PROTOCOL</td><td style="vertical-align:top;">:</td><td><div>HTTP/1.1</div></td></tr><tr><td style="font-weight:bold;vertical-align:top;">SERVER_SOFTWARE</td><td style="vertical-align:top;">:</td><td><div>Rocket 1.2.6</div></td></tr><tr><td style="font-weight:bold;vertical-align:top;">app_folders</td><td style="vertical-align:top;">:</td><td><div>set([&#x27;C:\\\\Users\\\\Ignacio\\\\Desktop\\\\TFG\\\\Git\\\\web2py\\\\applications\\\\twitter_api&#x27;])</div></td></tr><tr><td style="font-weight:bold;vertical-align:top;">applications_parent</td><td style="vertical-align:top;">:</td><td><div>C:\\Users\\Ignacio\\Desktop\\TFG\\Git\\web2py</div></td></tr><tr><td style="font-weight:bold;vertical-align:top;">cmd_args</td><td style="vertical-align:top;">:</td><td><div><table></table></div></td></tr><tr><td style="font-weight:bold;vertical-align:top;">cmd_options</td><td style="vertical-align:top;">:</td><td><div>&lt;Values at 0x4004d48: {&#x27;verbose&#x27;: False, &#x27;ip&#x27;: &#x27;127.0.0.1&#x27;, &#x27;debuglevel&#x27;: 30, &#x27;with_scheduler&#x27;: False, &#x27;shutdown_timeout&#x27;: 5, &#x27;taskbar&#x27;: False, &#x27;with_coverage&#x27;: False, &#x27;pid_filename&#x27;: &#x27;httpserver.pid&#x27;, &#x27;maxthreads&#x27;: None, &#x27;softcron&#x27;: False, &#x27;server_name&#x27;: &#x27;LAPTOP-L4O5O5SF&#x27;, &#x27;bpython&#x27;: False, &#x27;nogui&#x27;: False, &#x27;port&#x27;: 8000, &#x27;print_errors&#x27;: True, &#x27;extcron&#x27;: False, &#x27;runcron&#x27;: False, &#x27;run_system_tests&#x27;: False, &#x27;test&#x27;: None, &#x27;folder&#x27;: &#x27;C:\\\\Users\\\\Ignacio\\\\Desktop\\\\TFG\\\\Git\\\\web2py&#x27;, &#x27;config&#x27;: &#x27;&#x27;, &#x27;minthreads&#x27;: None, &#x27;shell&#x27;: None, &#x27;run&#x27;: &#x27;&#x27;, &#x27;log_filename&#x27;: &#x27;httpserver.log&#x27;, &#x27;profiler_dir&#x27;: None, &#x27;args&#x27;: [], &#x27;socket_timeout&#x27;: 5, &#x27;ssl_ca_certificate&#x27;: None, &#x27;scheduler&#x27;: None, &#x27;interfaces&#x27;: None, &#x27;ssl_private_key&#x27;: &#x27;&#x27;, &#x27;gae&#x27;: None, &#x27;password&#x27;: &#x27;******&#x27;, &#x27;request_queue_size&#x27;: 5, &#x27;ssl_certificate&#x27;: &#x27;&#x27;, &#x27;cronjob&#x27;: False, &#x27;numthreads&#x27;: None, &#x27;quiet&#x27;: False, &#x27;import_models&#x27;: False, &#x27;timeout&#x27;: 10, &#x27;plain&#x27;: False, &#x27;nobanner&#x27;: False}&gt;</div></td></tr><tr><td style="font-weight:bold;vertical-align:top;">content_length</td><td style="vertical-align:top;">:</td><td><div>10</div></td></tr><tr><td style="font-weight:bold;vertical-align:top;">content_type</td><td style="vertical-align:top;">:</td><td><div>application/x-www-form-urlencoded; charset=UTF-8</div></td></tr><tr><td style="font-weight:bold;vertical-align:top;">db_sessions</td><td style="vertical-align:top;">:</td><td><div>set([])</div></td></tr><tr><td style="font-weight:bold;vertical-align:top;">debugging</td><td style="vertical-align:top;">:</td><td><div>False</div></td></tr><tr><td style="font-weight:bold;vertical-align:top;">gluon_parent</td><td style="vertical-align:top;">:</td><td><div>C:\\Users\\Ignacio\\Desktop\\TFG\\Git\\web2py</div></td></tr><tr><td style="font-weight:bold;vertical-align:top;">http_accept</td><td style="vertical-align:top;">:</td><td><div>*/*</div></td></tr><tr><td style="font-weight:bold;vertical-align:top;">http_accept_encoding</td><td style="vertical-align:top;">:</td><td><div>gzip, deflate, br</div></td></tr><tr><td style="font-weight:bold;vertical-align:top;">http_accept_language</td><td style="vertical-align:top;">:</td><td><div>es,en;q=0.9</div></td></tr><tr><td style="font-weight:bold;vertical-align:top;">http_connection</td><td style="vertical-align:top;">:</td><td><div>keep-alive</div></td></tr><tr><td style="font-weight:bold;vertical-align:top;">http_content_length</td><td style="vertical-align:top;">:</td><td><div>10</div></td></tr><tr><td style="font-weight:bold;vertical-align:top;">http_content_type</td><td style="vertical-align:top;">:</td><td><div>application/x-www-form-urlencoded; charset=UTF-8</div></td></tr><tr><td style="font-weight:bold;vertical-align:top;">http_cookie</td><td style="vertical-align:top;">:</td><td><div>session_id_twitter_api=127.0.0.1-ed19e4e2-666f-47a3-aeb4-1d0162a7b3bb</div></td></tr><tr><td style="font-weight:bold;vertical-align:top;">http_host</td><td style="vertical-align:top;">:</td><td><div>127.0.0.1:8000</div></td></tr><tr><td style="font-weight:bold;vertical-align:top;">http_origin</td><td style="vertical-align:top;">:</td><td><div>http://127.0.0.1:8000</div></td></tr><tr><td style="font-weight:bold;vertical-align:top;">http_referer</td><td style="vertical-align:top;">:</td><td><div>http://127.0.0.1:8000/</div></td></tr><tr><td style="font-weight:bold;vertical-align:top;">http_sec_fetch_mode</td><td style="vertical-align:top;">:</td><td><div>cors</div></td></tr><tr><td style="font-weight:bold;vertical-align:top;">http_sec_fetch_site</td><td style="vertical-align:top;">:</td><td><div>same-origin</div></td></tr><tr><td style="font-weight:bold;vertical-align:top;">http_user_agent</td><td style="vertical-align:top;">:</td><td><div>Mozilla/5.0 (Windows NT 10.0; Win64; x64) AppleWebKit/537.36 (KHTML, like Gecko) Chrome/76.0.3809.132 Safari/537.36</div></td></tr><tr><td style="font-weight:bold;vertical-align:top;">http_x_requested_with</td><td style="vertical-align:top;">:</td><td><div>XMLHttpRequest</div></td></tr><tr><td style="font-weight:bold;vertical-align:top;">is_jython</td><td style="vertical-align:top;">:</td><td><div>False</div></td></tr><tr><td style="font-weight:bold;vertical-align:top;">is_py2</td><td style="vertical-align:top;">:</td><td><div>True</div></td></tr><tr><td style="font-weight:bold;vertical-align:top;">is_pypy</td><td style="vertical-align:top;">:</td><td><div>False</div></td></tr><tr><td style="font-weight:bold;vertical-align:top;">is_source</td><td style="vertical-align:top;">:</td><td><div>True</div></td></tr><tr><td style="font-weight:bold;vertical-align:top;">local_hosts</td><td style="vertical-align:top;">:</td><td><div><table><tr><td><div>fe80::64bf:1f23:8129:d457%10</div></td></tr><tr><td><div>LAPTOP-L4O5O5SF.home</div></td></tr><tr><td><div>LAPTOP-L4O5O5SF</div></td></tr><tr><td><div>192.168.1.103</div></td></tr><tr><td><div>::ffff:127.0.0.1</div></td></tr><tr><td><div>::1</div></td></tr><tr><td><div>2a02:2e02:32c9:8300:c430:1fa5:ce74:2269</div></td></tr><tr><td><div>127.0.0.1</div></td></tr><tr><td><div>2a02:2e02:32c9:8300:64bf:1f23:8129:d457</div></td></tr></table></div></td></tr><tr><td style="font-weight:bold;vertical-align:top;">path_info</td><td style="vertical-align:top;">:</td><td><div>/api/log_on_twitter</div></td></tr><tr><td style="font-weight:bold;vertical-align:top;">query_string</td><td style="vertical-align:top;">:</td><td><div></div></td></tr><tr><td style="font-weight:bold;vertical-align:top;">remote_addr</td><td style="vertical-align:top;">:</td><td><div>127.0.0.1</div></td></tr><tr><td style="font-weight:bold;vertical-align:top;">remote_port</td><td style="vertical-align:top;">:</td><td><div>59403</div></td></tr><tr><td style="font-weight:bold;vertical-align:top;">request_method</td><td style="vertical-align:top;">:</td><td><div>POST</div></td></tr><tr><td style="font-weight:bold;vertical-align:top;">request_uri</td><td style="vertical-align:top;">:</td><td><div>/twitter_api/en/api/log_on_twitter</div></td></tr><tr><td style="font-weight:bold;vertical-align:top;">script_name</td><td style="vertical-align:top;">:</td><td><div></div></td></tr><tr><td style="font-weight:bold;vertical-align:top;">server_name</td><td style="vertical-align:top;">:</td><td><div>LAPTOP-L4O5O5SF</div></td></tr><tr><td style="font-weight:bold;vertical-align:top;">server_port</td><td style="vertical-align:top;">:</td><td><div>8000</div></td></tr><tr><td style="font-weight:bold;vertical-align:top;">server_protocol</td><td style="vertical-align:top;">:</td><td><div>HTTP/1.1</div></td></tr><tr><td style="font-weight:bold;vertical-align:top;">server_software</td><td style="vertical-align:top;">:</td><td><div>Rocket 1.2.6</div></td></tr><tr><td style="font-weight:bold;vertical-align:top;">web2py_original_uri</td><td style="vertical-align:top;">:</td><td><div>/api/log_on_twitter</div></td></tr><tr><td style="font-weight:bold;vertical-align:top;">web2py_path</td><td style="vertical-align:top;">:</td><td><div>C:\\Users\\Ignacio\\Desktop\\TFG\\Git\\web2py</div></td></tr><tr><td style="font-weight:bold;vertical-align:top;">web2py_version</td><td style="vertical-align:top;">:</td><td><div>2.18.5-stable+timestamp.2019.04.08.04.22.03</div></td></tr><tr><td style="font-weight:bold;vertical-align:top;">wsgi.errors</td><td style="vertical-align:top;">:</td><td><div>&lt;open file &#x27;&lt;stderr&gt;&#x27;, mode &#x27;w&#x27; at 0x000000000278B150&gt;</div></td></tr><tr><td style="font-weight:bold;vertical-align:top;">wsgi.file_wrapper</td><td style="vertical-align:top;">:</td><td><div>&lt;class wsgiref.util.FileWrapper at 0x0000000003FB8B88&gt;</div></td></tr><tr><td style="font-weight:bold;vertical-align:top;">wsgi.input</td><td style="vertical-align:top;">:</td><td><div>&lt;socket._fileobject object at 0x000000000A662480&gt;</div></td></tr><tr><td style="font-weight:bold;vertical-align:top;">wsgi.multiprocess</td><td style="vertical-align:top;">:</td><td><div>False</div></td></tr><tr><td style="font-weight:bold;vertical-align:top;">wsgi.multithread</td><td style="vertical-align:top;">:</td><td><div>True</div></td></tr><tr><td style="font-weight:bold;vertical-align:top;">wsgi.run_once</td><td style="vertical-align:top;">:</td><td><div>False</div></td></tr><tr><td style="font-weight:bold;vertical-align:top;">wsgi.url_scheme</td><td style="vertical-align:top;">:</td><td><div>http</div></td></tr><tr><td style="font-weight:bold;vertical-align:top;">wsgi.version</td><td style="vertical-align:top;">:</td><td><div><table><tr><td><div>1</div></td></tr><tr><td><div>0</div></td></tr></table></div></td></tr><tr><td style="font-weight:bold;vertical-align:top;">wsgi_errors</td><td style="vertical-align:top;">:</td><td><div>&lt;open file &#x27;&lt;stderr&gt;&#x27;, mode &#x27;w&#x27; at 0x000000000278B150&gt;</div></td></tr><tr><td style="font-weight:bold;vertical-align:top;">wsgi_file_wrapper</td><td style="vertical-align:top;">:</td><td><div>&lt;class wsgiref.util.FileWrapper at 0x0000000003FB8B88&gt;</div></td></tr><tr><td style="font-weight:bold;vertical-align:top;">wsgi_input</td><td style="vertical-align:top;">:</td><td><div>&lt;socket._fileobject object at 0x000000000A662480&gt;</div></td></tr><tr><td style="font-weight:bold;vertical-align:top;">wsgi_multiprocess</td><td style="vertical-align:top;">:</td><td><div>False</div></td></tr><tr><td style="font-weight:bold;vertical-align:top;">wsgi_multithread</td><td style="vertical-align:top;">:</td><td><div>True</div></td></tr><tr><td style="font-weight:bold;vertical-align:top;">wsgi_run_once</td><td style="vertical-align:top;">:</td><td><div>False</div></td></tr><tr><td style="font-weight:bold;vertical-align:top;">wsgi_url_scheme</td><td style="vertical-align:top;">:</td><td><div>http</div></td></tr><tr><td style="font-weight:bold;vertical-align:top;">wsgi_version</td><td style="vertical-align:top;">:</td><td><div><table><tr><td><div>1</div></td></tr><tr><td><div>0</div></td></tr></table></div></td></tr></table></div></td></tr><tr><td style="font-weight:bold;vertical-align:top;">extension</td><td style="vertical-align:top;">:</td><td><div>html</div></td></tr><tr><td style="font-weight:bold;vertical-align:top;">folder</td><td style="vertical-align:top;">:</td><td><div>C:\\Users\\Ignacio\\Desktop\\TFG\\Git\\web2py\\applications\\twitter_api</div></td></tr><tr><td style="font-weight:bold;vertical-align:top;">function</td><td style="vertical-align:top;">:</td><td><div>log_on_twitter</div></td></tr><tr><td style="font-weight:bold;vertical-align:top;">global_settings</td><td style="vertical-align:top;">:</td><td><div><table><tr><td style="font-weight:bold;vertical-align:top;">app_folders</td><td style="vertical-align:top;">:</td><td><div>set([&#x27;C:\\\\Users\\\\Ignacio\\\\Desktop\\\\TFG\\\\Git\\\\web2py\\\\applications\\\\twitter_api&#x27;])</div></td></tr><tr><td style="font-weight:bold;vertical-align:top;">applications_parent</td><td style="vertical-align:top;">:</td><td><div>C:\\Users\\Ignacio\\Desktop\\TFG\\Git\\web2py</div></td></tr><tr><td style="font-weight:bold;vertical-align:top;">cmd_args</td><td style="vertical-align:top;">:</td><td><div><table></table></div></td></tr><tr><td style="font-weight:bold;vertical-align:top;">cmd_options</td><td style="vertical-align:top;">:</td><td><div>&lt;Values at 0x4004d48: {&#x27;verbose&#x27;: False, &#x27;ip&#x27;: &#x27;127.0.0.1&#x27;, &#x27;debuglevel&#x27;: 30, &#x27;with_scheduler&#x27;: False, &#x27;shutdown_timeout&#x27;: 5, &#x27;taskbar&#x27;: False, &#x27;with_coverage&#x27;: False, &#x27;pid_filename&#x27;: &#x27;httpserver.pid&#x27;, &#x27;maxthreads&#x27;: None, &#x27;softcron&#x27;: False, &#x27;server_name&#x27;: &#x27;LAPTOP-L4O5O5SF&#x27;, &#x27;bpython&#x27;: False, &#x27;nogui&#x27;: False, &#x27;port&#x27;: 8000, &#x27;print_errors&#x27;: True, &#x27;extcron&#x27;: False, &#x27;runcron&#x27;: False, &#x27;run_system_tests&#x27;: False, &#x27;test&#x27;: None, &#x27;folder&#x27;: &#x27;C:\\\\Users\\\\Ignacio\\\\Desktop\\\\TFG\\\\Git\\\\web2py&#x27;, &#x27;config&#x27;: &#x27;&#x27;, &#x27;minthreads&#x27;: None, &#x27;shell&#x27;: None, &#x27;run&#x27;: &#x27;&#x27;, &#x27;log_filename&#x27;: &#x27;httpserver.log&#x27;, &#x27;profiler_dir&#x27;: None, &#x27;args&#x27;: [], &#x27;socket_timeout&#x27;: 5, &#x27;ssl_ca_certificate&#x27;: None, &#x27;scheduler&#x27;: None, &#x27;interfaces&#x27;: None, &#x27;ssl_private_key&#x27;: &#x27;&#x27;, &#x27;gae&#x27;: None, &#x27;password&#x27;: &#x27;******&#x27;, &#x27;request_queue_size&#x27;: 5, &#x27;ssl_certificate&#x27;: &#x27;&#x27;, &#x27;cronjob&#x27;: False, &#x27;numthreads&#x27;: None, &#x27;quiet&#x27;: False, &#x27;import_models&#x27;: False, &#x27;timeout&#x27;: 10, &#x27;plain&#x27;: False, &#x27;nobanner&#x27;: False}&gt;</div></td></tr><tr><td style="font-weight:bold;vertical-align:top;">db_sessions</td><td style="vertical-align:top;">:</td><td><div>set([])</div></td></tr><tr><td style="font-weight:bold;vertical-align:top;">debugging</td><td style="vertical-align:top;">:</td><td><div>False</div></td></tr><tr><td style="font-weight:bold;vertical-align:top;">gluon_parent</td><td style="vertical-align:top;">:</td><td><div>C:\\Users\\Ignacio\\Desktop\\TFG\\Git\\web2py</div></td></tr><tr><td style="font-weight:bold;vertical-align:top;">is_jython</td><td style="vertical-align:top;">:</td><td><div>False</div></td></tr><tr><td style="font-weight:bold;vertical-align:top;">is_py2</td><td style="vertical-align:top;">:</td><td><div>True</div></td></tr><tr><td style="font-weight:bold;vertical-align:top;">is_pypy</td><td style="vertical-align:top;">:</td><td><div>False</div></td></tr><tr><td style="font-weight:bold;vertical-align:top;">is_source</td><td style="vertical-align:top;">:</td><td><div>True</div></td></tr><tr><td style="font-weight:bold;vertical-align:top;">local_hosts</td><td style="vertical-align:top;">:</td><td><div><table><tr><td><div>fe80::64bf:1f23:8129:d457%10</div></td></tr><tr><td><div>LAPTOP-L4O5O5SF.home</div></td></tr><tr><td><div>LAPTOP-L4O5O5SF</div></td></tr><tr><td><div>192.168.1.103</div></td></tr><tr><td><div>::ffff:127.0.0.1</div></td></tr><tr><td><div>::1</div></td></tr><tr><td><div>2a02:2e02:32c9:8300:c430:1fa5:ce74:2269</div></td></tr><tr><td><div>127.0.0.1</div></td></tr><tr><td><div>2a02:2e02:32c9:8300:64bf:1f23:8129:d457</div></td></tr></table></div></td></tr><tr><td style="font-weight:bold;vertical-align:top;">web2py_version</td><td style="vertical-align:top;">:</td><td><div>2.18.5-stable+timestamp.2019.04.08.04.22.03</div></td></tr></table></div></td></tr><tr><td style="font-weight:bold;vertical-align:top;">is_https</td><td style="vertical-align:top;">:</td><td><div>False</div></td></tr><tr><td style="font-weight:bold;vertical-align:top;">is_local</td><td style="vertical-align:top;">:</td><td><div>True</div></td></tr><tr><td style="font-weight:bold;vertical-align:top;">is_restful</td><td style="vertical-align:top;">:</td><td><div>False</div></td></tr><tr><td style="font-weight:bold;vertical-align:top;">is_scheduler</td><td style="vertical-align:top;">:</td><td><div>False</div></td></tr><tr><td style="font-weight:bold;vertical-align:top;">is_shell</td><td style="vertical-align:top;">:</td><td><div>False</div></td></tr><tr><td style="font-weight:bold;vertical-align:top;">method</td><td style="vertical-align:top;">:</td><td><div>POST</div></td></tr><tr><td style="font-weight:bold;vertical-align:top;">now</td><td style="vertical-align:top;">:</td><td><div>datetime.datetime(2019, 8, 30, 9, 54, 15, 602000)</div></td></tr><tr><td style="font-weight:bold;vertical-align:top;">uri_language</td><td style="vertical-align:top;">:</td><td><div>en</div></td></tr><tr><td style="font-weight:bold;vertical-align:top;">url</td><td style="vertical-align:top;">:</td><td><div>/api/log_on_twitter</div></td></tr><tr><td style="font-weight:bold;vertical-align:top;">utcnow</td><td style="vertical-align:top;">:</td><td><div>datetime.datetime(2019, 8, 30, 7, 54, 15, 602000)</div></td></tr><tr><td style="font-weight:bold;vertical-align:top;">wsgi</td><td style="vertical-align:top;">:</td><td><div>&lt;gluon.main.LazyWSGI object at 0x000000000ADB4940&gt;</div></td></tr></table></div>'
tRp60
sS'frames'
p61
(lp62
(dp63
S'file'
p64
S'C:\\Users\\Ignacio\\Desktop\\TFG\\Git\\web2py\\gluon\\restricted.py'
p65
sS'dump'
p66
(dp67
S'environment'
p68
S"{'A': <class 'gluon.html.A'>, 'ANY_OF': <class 'pydal.validators.ANY_OF'>, 'ASSIGNJS': <function ASSIGNJS>, 'AppConfig': <function AppConfig>, 'Auth': <class 'gluon.tools.Auth'>, 'B': <class 'gluon.html.B'>, 'BEAUTIFY': <class 'gluon.html.BEAUTIFY'>, 'BODY': <class 'gluon.html.BODY'>, 'BR': <class 'gluon.html.BR'>, 'BUTTON': <class 'gluon.html.BUTTON'>, ...}"
p69
sS'ccode'
p70
S'<code object <module> at 000000000487B4B0, file ...ications\\twitter_api\\controllers/api.py", line 1>'
p71
ssS'lnum'
p72
I219
sS'lines'
p73
(dp74
I214
S'    if environment is None:'
p75
sI215
S'        environment = {}'
p76
sI216
S"    environment['__file__'] = layer"
p77
sI217
S"    environment['__name__'] = '__restricted__'"
p78
sI218
S'    try:'
p79
sI219
S'        exec(ccode, environment)'
p80
sI220
S'    except HTTP:'
p81
sI221
S'        raise'
p82
sI222
S'    except RestrictedError:'
p83
sI223
S'        # do not encapsulate (obfuscate) the original RestrictedError'
p84
ssS'call'
p85
S'(ccode=<code object <module> at 000000000487B4B0, file ...ications\\twitter_api\\controllers/api.py", line 1>, environment={\'A\': <class \'gluon.html.A\'>, \'ANY_OF\': <class \'pydal.validators.ANY_OF\'>, \'ASSIGNJS\': <function ASSIGNJS>, \'AppConfig\': <function AppConfig>, \'Auth\': <class \'gluon.tools.Auth\'>, \'B\': <class \'gluon.html.B\'>, \'BEAUTIFY\': <class \'gluon.html.BEAUTIFY\'>, \'BODY\': <class \'gluon.html.BODY\'>, \'BR\': <class \'gluon.html.BR\'>, \'BUTTON\': <class \'gluon.html.BUTTON\'>, ...}, layer=r\'C:\\Users\\Ignacio\\Desktop\\TFG\\Git\\web2py\\applications\\twitter_api\\controllers/api.py\', scode=<code object <module> at 000000000487B4B0, file ...ications\\twitter_api\\controllers/api.py", line 1>)'
p86
sS'func'
p87
S'restricted'
p88
sa(dp89
g64
S'C:\\Users\\Ignacio\\Desktop\\TFG\\Git\\web2py\\applications\\twitter_api\\controllers\\api.py'
p90
sg66
(dp91
S'request.vars'
p92
S"<Storage {'word': 'tweet'}>"
p93
sS'request'
p94
S"<Storage {'_vars': <Storage {'word': 'tweet'}>, ...y\\\\applications\\\\twitter_api', 'method': 'POST'}>"
p95
sS'string'
p96
S'undefined'
p97
sS'request.vars.string'
p98
S'None'
p99
ssg72
I33
sg73
(dp100
I32
S'@auth.requires_login()'
p101
sI33
S'@my_decorator()'
p102
sI34
S'def post_tweet():'
p103
sI35
S"    print('post tweet api method')"
p104
sI36
S'    # string =request.vars.string'
p105
sI37
S''
sI28
S''
sI29
S"    # string = 'new post'"
p106
sI30
S'    # status = api.PostUpdate(string)'
p107
sI31
S''
ssg85
S'()'
p108
sg87
S'<module>'
p109
sasS'pyver'
p110
S'Python 2.7.10: C:\\Python27\\python.exe (prefix: C:\\Python27)'
p111
sS'session'
p112
g59
(S's\x1a\x00\x00\x00<div><table></table></div>'
tRp113
sS'etype'
p114
S"<type 'exceptions.NameError'>"
p115
sS'date'
p116
S'Fri Aug 30 09:54:15 2019'
p117
sS'response'
p118
g59
(S's\x18\x1f\x00\x00<div><table><tr><td style="font-weight:bold;vertical-align:top;">body</td><td style="vertical-align:top;">:</td><td><div>&lt;cStringIO.StringO object at 0x000000000AF4C9D0&gt;</div></td></tr><tr><td style="font-weight:bold;vertical-align:top;">cookies</td><td style="vertical-align:top;">:</td><td><div><table><tr><td style="font-weight:bold;vertical-align:top;">session_id_twitter_api</td><td style="vertical-align:top;">:</td><td><div>127.0.0.1-3b768852-22bb-4f75-babd-3769b3c10b81<table><tr><td style="font-weight:bold;vertical-align:top;">comment</td><td style="vertical-align:top;">:</td><td><div></div></td></tr><tr><td style="font-weight:bold;vertical-align:top;">domain</td><td style="vertical-align:top;">:</td><td><div></div></td></tr><tr><td style="font-weight:bold;vertical-align:top;">expires</td><td style="vertical-align:top;">:</td><td><div></div></td></tr><tr><td style="font-weight:bold;vertical-align:top;">httponly</td><td style="vertical-align:top;">:</td><td><div></div></td></tr><tr><td style="font-weight:bold;vertical-align:top;">max-age</td><td style="vertical-align:top;">:</td><td><div></div></td></tr><tr><td style="font-weight:bold;vertical-align:top;">path</td><td style="vertical-align:top;">:</td><td><div>/</div></td></tr><tr><td style="font-weight:bold;vertical-align:top;">samesite</td><td style="vertical-align:top;">:</td><td><div></div></td></tr><tr><td style="font-weight:bold;vertical-align:top;">secure</td><td style="vertical-align:top;">:</td><td><div></div></td></tr><tr><td style="font-weight:bold;vertical-align:top;">version</td><td style="vertical-align:top;">:</td><td><div></div></td></tr></table></div></td></tr></table></div></td></tr><tr><td style="font-weight:bold;vertical-align:top;">delimiters</td><td style="vertical-align:top;">:</td><td><div><table><tr><td><div>{{</div></td></tr><tr><td><div>}}</div></td></tr></table></div></td></tr><tr><td style="font-weight:bold;vertical-align:top;">files</td><td style="vertical-align:top;">:</td><td><div><table></table></div></td></tr><tr><td style="font-weight:bold;vertical-align:top;">flash</td><td style="vertical-align:top;">:</td><td><div></div></td></tr><tr><td style="font-weight:bold;vertical-align:top;">form_label_separator</td><td style="vertical-align:top;">:</td><td><div></div></td></tr><tr><td style="font-weight:bold;vertical-align:top;">formstyle</td><td style="vertical-align:top;">:</td><td><div>bootstrap4_inline</div></td></tr><tr><td style="font-weight:bold;vertical-align:top;">generic_patterns</td><td style="vertical-align:top;">:</td><td><div><table><tr><td><div>*</div></td></tr></table></div></td></tr><tr><td style="font-weight:bold;vertical-align:top;">google_analytics_id</td><td style="vertical-align:top;">:</td><td><div>None</div></td></tr><tr><td style="font-weight:bold;vertical-align:top;">headers</td><td style="vertical-align:top;">:</td><td><div><table><tr><td style="font-weight:bold;vertical-align:top;">X-Powered-By</td><td style="vertical-align:top;">:</td><td><div>web2py</div></td></tr></table></div></td></tr><tr><td style="font-weight:bold;vertical-align:top;">menu</td><td style="vertical-align:top;">:</td><td><div><table><tr><td><div><table><tr><td><div>Inicio</div></td></tr><tr><td><div>False</div></td></tr><tr><td><div>/</div></td></tr><tr><td><div><table></table></div></td></tr></table></div></td></tr><tr><td><div><table><tr><td><div>Jugadores</div></td></tr><tr><td><div>False</div></td></tr><tr><td><div>/jugadores</div></td></tr></table></div></td></tr><tr><td><div><table><tr><td><div>Parejas</div></td></tr><tr><td><div>False</div></td></tr><tr><td><div>/parejas</div></td></tr></table></div></td></tr><tr><td><div><table><tr><td><div>Nueva Pareja</div></td></tr><tr><td><div>False</div></td></tr><tr><td><div>/nueva_pareja</div></td></tr></table></div></td></tr><tr><td><div><table><tr><td><div>Grupos</div></td></tr><tr><td><div>False</div></td></tr><tr><td><div>/grupos</div></td></tr></table></div></td></tr><tr><td><div><table><tr><td><div>Partidos</div></td></tr><tr><td><div>False</div></td></tr><tr><td><div>/partidos</div></td></tr></table></div></td></tr><tr><td><div><table><tr><td><div>Resultados</div></td></tr><tr><td><div>False</div></td></tr><tr><td><div>/resultados</div></td></tr></table></div></td></tr></table></div></td></tr><tr><td style="font-weight:bold;vertical-align:top;">meta</td><td style="vertical-align:top;">:</td><td><div><table><tr><td style="font-weight:bold;vertical-align:top;">author</td><td style="vertical-align:top;">:</td><td><div>Your Name &lt;you@example.com&gt;</div></td></tr><tr><td style="font-weight:bold;vertical-align:top;">description</td><td style="vertical-align:top;">:</td><td><div>a cool new app</div></td></tr><tr><td style="font-weight:bold;vertical-align:top;">generator</td><td style="vertical-align:top;">:</td><td><div>Web2py Web Framework</div></td></tr><tr><td style="font-weight:bold;vertical-align:top;">keywords</td><td style="vertical-align:top;">:</td><td><div><table><tr><td><div>web2py</div></td></tr><tr><td><div>python</div></td></tr><tr><td><div>framework</div></td></tr></table></div></td></tr></table></div></td></tr><tr><td style="font-weight:bold;vertical-align:top;">models_to_run</td><td style="vertical-align:top;">:</td><td><div><table><tr><td><div>^\\w+\\.py$</div></td></tr><tr><td><div>^api/\\w+\\.py$</div></td></tr><tr><td><div>^api/log_on_twitter/\\w+\\.py$</div></td></tr></table></div></td></tr><tr><td style="font-weight:bold;vertical-align:top;">postprocessing</td><td style="vertical-align:top;">:</td><td><div><table></table></div></td></tr><tr><td style="font-weight:bold;vertical-align:top;">session_client</td><td style="vertical-align:top;">:</td><td><div>127.0.0.1</div></td></tr><tr><td style="font-weight:bold;vertical-align:top;">session_cookie_compression_level</td><td style="vertical-align:top;">:</td><td><div>None</div></td></tr><tr><td style="font-weight:bold;vertical-align:top;">session_cookie_expires</td><td style="vertical-align:top;">:</td><td><div>None</div></td></tr><tr><td style="font-weight:bold;vertical-align:top;">session_data_name</td><td style="vertical-align:top;">:</td><td><div>session_data_twitter_api</div></td></tr><tr><td style="font-weight:bold;vertical-align:top;">session_file</td><td style="vertical-align:top;">:</td><td><div>None</div></td></tr><tr><td style="font-weight:bold;vertical-align:top;">session_filename</td><td style="vertical-align:top;">:</td><td><div>C:\\Users\\Ignacio\\Desktop\\TFG\\Git\\web2py\\applications\\twitter_api\\sessions\\127.0.0.1-3b768852-22bb-4f75-babd-3769b3c10b81</div></td></tr><tr><td style="font-weight:bold;vertical-align:top;">session_hash</td><td style="vertical-align:top;">:</td><td><div>c0762cbf4baf7f9af97c051e7fcb8083</div></td></tr><tr><td style="font-weight:bold;vertical-align:top;">session_id</td><td style="vertical-align:top;">:</td><td><div>127.0.0.1-3b768852-22bb-4f75-babd-3769b3c10b81</div></td></tr><tr><td style="font-weight:bold;vertical-align:top;">session_id_name</td><td style="vertical-align:top;">:</td><td><div>session_id_twitter_api</div></td></tr><tr><td style="font-weight:bold;vertical-align:top;">session_masterapp</td><td style="vertical-align:top;">:</td><td><div>twitter_api</div></td></tr><tr><td style="font-weight:bold;vertical-align:top;">session_new</td><td style="vertical-align:top;">:</td><td><div>True</div></td></tr><tr><td style="font-weight:bold;vertical-align:top;">session_storage_type</td><td style="vertical-align:top;">:</td><td><div>file</div></td></tr><tr><td style="font-weight:bold;vertical-align:top;">show_toolbar</td><td style="vertical-align:top;">:</td><td><div>False</div></td></tr><tr><td style="font-weight:bold;vertical-align:top;">status</td><td style="vertical-align:top;">:</td><td><div>200</div></td></tr><tr><td style="font-weight:bold;vertical-align:top;">view</td><td style="vertical-align:top;">:</td><td><div>api/log_on_twitter.html</div></td></tr></table></div>'
tRp119
sS'locals'
p120
(dp121
S'PY2'
p122
S'True'
p123
sS'OBJECT'
p124
S"<class 'gluon.html.OBJECT'>"
p125
sS'SQLDB'
p126
S"<class 'pydal.base.DAL'>"
p127
sg112
S'<Storage {}>'
p128
sS'LINK'
p129
S"<class 'gluon.html.LINK'>"
p130
sS'BR'
p131
S"<class 'gluon.html.BR'>"
p132
sS'local_import'
p133
S'<function <lambda>>'
p134
sS'OPTGROUP'
p135
S"<class 'gluon.html.OPTGROUP'>"
p136
sS'LI'
p137
S"<class 'gluon.html.LI'>"
p138
sS'PRE'
p139
S"<class 'gluon.html.PRE'>"
p140
sS'IS_INT_IN_RANGE'
p141
S"<class 'pydal.validators.IS_INT_IN_RANGE'>"
p142
sS'to_bytes'
p143
S'<function to_bytes>'
p144
sS'IS_LOWER'
p145
S"<class 'pydal.validators.IS_LOWER'>"
p146
sS'IS_STRONG'
p147
S"<class 'pydal.validators.IS_STRONG'>"
p148
sS'cache'
p149
S'<gluon.cache.Cache object>'
p150
sS'IS_IN_DB'
p151
S"<class 'pydal.validators.IS_IN_DB'>"
p152
sS'TAG'
p153
S'<gluon.html.__TAG__ object>'
p154
sS'SQLField'
p155
S"<class 'pydal.objects.Field'>"
p156
sS'mail'
p157
S'<gluon.tools.Mail object>'
p158
sS'BODY'
p159
S"<class 'gluon.html.BODY'>"
p160
sS'IS_DATE_IN_RANGE'
p161
S"<class 'pydal.validators.IS_DATE_IN_RANGE'>"
p162
sS'TH'
p163
S"<class 'gluon.html.TH'>"
p164
sS'log_on_twitter'
p165
S'<function log_on_twitter>'
p166
sS'__file__'
p167
S"r'C:\\Users\\Ignacio\\Desktop\\TFG\\Git\\web2py\\applications\\twitter_api\\controllers/api.py'"
p168
sS'db'
p169
S'<DAL uri="sqlite://storage.sqlite">'
p170
sS'auth'
p171
S'<gluon.tools.Auth object>'
p172
sS'P'
S"<class 'gluon.html.P'>"
p173
sS'T'
S'<gluon.languages.TranslatorFactory object>'
p174
sS'iteritems'
p175
S'<function <lambda>>'
p176
sS'XHTML'
p177
S"<class 'gluon.html.XHTML'>"
p178
sS'datetime'
p179
S"<module 'datetime' (built-in)>"
p180
sS'ON'
p181
g123
sS'OL'
p182
S"<class 'gluon.html.OL'>"
p183
sS'TEXTAREA'
p184
S"<class 'gluon.html.TEXTAREA'>"
p185
sS'MENU'
p186
S"<class 'gluon.html.MENU'>"
p187
sS'get_logged_in_user'
p188
S'<function get_logged_in_user>'
p189
sS'LOAD'
p190
S'<function LOAD>'
p191
sS'CODE'
p192
S"<class 'gluon.html.CODE'>"
p193
sS'HTTP'
p194
S"<class 'gluon.http.HTTP'>"
p195
sS'HR'
p196
S"<class 'gluon.html.HR'>"
p197
sS'IS_DATETIME'
p198
S"<class 'pydal.validators.IS_DATETIME'>"
p199
sS'reduce'
p200
S'<built-in function reduce>'
p201
sS'IS_FLOAT_IN_RANGE'
p202
S"<class 'pydal.validators.IS_FLOAT_IN_RANGE'>"
p203
sS'LABEL'
p204
S"<class 'gluon.html.LABEL'>"
p205
sS'CLEANUP'
p206
S"<class 'pydal.validators.CLEANUP'>"
p207
sS'SELECT'
p208
S"<class 'gluon.html.SELECT'>"
p209
sS'CENTER'
p210
S"<class 'gluon.html.CENTER'>"
p211
sS'Auth'
p212
S"<class 'gluon.tools.Auth'>"
p213
sS'__builtins__'
p214
S"{'ArithmeticError': <type 'exceptions.ArithmeticError'>, 'AssertionError': <type 'exceptions.AssertionError'>, 'AttributeError': <type 'exceptions.AttributeError'>, 'BaseException': <type 'exceptions.BaseException'>, 'BufferError': <type 'exceptions.BufferError'>, 'BytesWarning': <type 'exceptions.BytesWarning'>, 'DeprecationWarning': <type 'exceptions.DeprecationWarning'>, 'EOFError': <type 'exceptions.EOFError'>, 'Ellipsis': Ellipsis, 'EnvironmentError': <type 'exceptions.EnvironmentError'>, ...}"
p215
sS'HTML'
p216
S"<class 'gluon.html.HTML'>"
p217
sS'SQLFORM'
p218
S"<class 'gluon.sqlhtml.SQLFORM'>"
p219
sS'EM'
p220
S"<class 'gluon.html.EM'>"
p221
sS'redirect'
p222
S'<function redirect>'
p223
sS'FIELDSET'
p224
S"<class 'gluon.html.FIELDSET'>"
p225
sS'IS_EQUAL_TO'
p226
S"<class 'pydal.validators.IS_EQUAL_TO'>"
p227
sS'HEAD'
p228
S"<class 'gluon.html.HEAD'>"
p229
sS'embed64'
p230
S'<function embed64>'
p231
sS'IS_LIST_OF'
p232
S"<class 'pydal.validators.IS_LIST_OF'>"
p233
sS'__name__'
p234
S"'__restricted__'"
p235
sS'EMBED'
p236
S"<class 'gluon.html.EMBED'>"
p237
sS'configuration'
p238
S"{'host': {'names': 'localhost:*, 127.0.0.1:*, *:...': 'sqlite://storage.sqlite', 'pool_size': '10'}}"
p239
sS'FORM'
p240
S"<class 'gluon.html.FORM'>"
p241
sS'H2'
p242
S"<class 'gluon.html.H2'>"
p243
sS'H3'
p244
S"<class 'gluon.html.H3'>"
p245
sS'AppConfig'
p246
S'<function AppConfig>'
p247
sS'H1'
p248
S"<class 'gluon.html.H1'>"
p249
sS'H6'
p250
S"<class 'gluon.html.H6'>"
p251
sS'H4'
p252
S"<class 'gluon.html.H4'>"
p253
sS'H5'
p254
S"<class 'gluon.html.H5'>"
p255
sS'UL'
p256
S"<class 'gluon.html.UL'>"
p257
sS'IS_UPPER'
p258
S"<class 'pydal.validators.IS_UPPER'>"
p259
sS'xmlescape'
p260
S'<function xmlescape>'
p261
sS'IS_TIME'
p262
S"<class 'pydal.validators.IS_TIME'>"
p263
sS'os'
p264
S"<module 'os' from 'C:\\Python27\\lib\\os.pyc'>"
p265
sS'OPTION'
p266
S"<class 'gluon.html.OPTION'>"
p267
sS'TITLE'
p268
S"<class 'gluon.html.TITLE'>"
p269
sS'CRYPT'
p270
S"<class 'pydal.validators.CRYPT'>"
p271
sS'IS_EMPTY_OR'
p272
S"<class 'pydal.validators.IS_EMPTY_OR'>"
p273
sS'MARKMIN'
p274
S"<class 'gluon.html.MARKMIN'>"
p275
sS'INPUT'
p276
S"<class 'gluon.html.INPUT'>"
p277
sS'STRONG'
p278
S"<class 'gluon.html.STRONG'>"
p279
sS'COL'
p280
S"<class 'gluon.html.COL'>"
p281
sS'SCRIPT'
p282
S"<class 'gluon.html.SCRIPT'>"
p283
sS'json'
p284
S"<module 'json' from 'C:\\Python27\\lib\\json\\__init__.pyc'>"
p285
sS'TABLE'
p286
S"<class 'gluon.html.TABLE'>"
p287
sS'IS_IPV4'
p288
S"<class 'pydal.validators.IS_IPV4'>"
p289
sS'IS_LENGTH'
p290
S"<class 'pydal.validators.IS_LENGTH'>"
p291
sS'IS_IPV6'
p292
S"<class 'pydal.validators.IS_IPV6'>"
p293
sS'XML'
p294
S"<class 'gluon.html.XML'>"
p295
sS'B'
S"<class 'gluon.html.B'>"
p296
sS'IMG'
p297
S"<class 'gluon.html.IMG'>"
p298
sS'SQLTABLE'
p299
S"<class 'gluon.sqlhtml.SQLTABLE'>"
p300
sS'IS_MATCH'
p301
S"<class 'pydal.validators.IS_MATCH'>"
p302
sS'IS_ALPHANUMERIC'
p303
S"<class 'pydal.validators.IS_ALPHANUMERIC'>"
p304
sS'TBODY'
p305
S"<class 'gluon.html.TBODY'>"
p306
sS'_app'
p307
S"'twitter_api'"
p308
sS'SPAN'
p309
S"<class 'gluon.html.SPAN'>"
p310
sS'IS_JSON'
p311
S"<class 'pydal.validators.IS_JSON'>"
p312
sS'IS_IPADDRESS'
p313
S"<class 'pydal.validators.IS_IPADDRESS'>"
p314
sS'IS_SLUG'
p315
S"<class 'pydal.validators.IS_SLUG'>"
p316
sS'get_user_full_name'
p317
S'<function get_user_full_name>'
p318
sS'BEAUTIFY'
p319
S"<class 'gluon.html.BEAUTIFY'>"
p320
sS'META'
p321
S"<class 'gluon.html.META'>"
p322
sS'BUTTON'
p323
S"<class 'gluon.html.BUTTON'>"
p324
sS'IS_DATE'
p325
S"<class 'pydal.validators.IS_DATE'>"
p326
sS'IS_EMAIL'
p327
S"<class 'pydal.validators.IS_EMAIL'>"
p328
sS'IS_NOT_EMPTY'
p329
S"<class 'pydal.validators.IS_NOT_EMPTY'>"
p330
sS'xrange'
p331
S"<type 'xrange'>"
p332
sS'get_user_email'
p333
S'<function get_user_email>'
p334
sS'CAT'
p335
S"<class 'gluon.html.CAT'>"
p336
sS'Field'
p337
S"<class 'pydal.objects.Field'>"
p338
sS'IS_LIST_OF_EMAILS'
p339
S"<class 'pydal.validators.IS_LIST_OF_EMAILS'>"
p340
sS'DIV'
p341
S"<class 'gluon.html.DIV'>"
p342
sS'LEGEND'
p343
S"<class 'gluon.html.LEGEND'>"
p344
sS'to_native'
p345
S'<function to_native>'
p346
sS'COLGROUP'
p347
S"<class 'gluon.html.COLGROUP'>"
p348
sS'DAL'
p349
S"<class 'pydal.base.DAL'>"
p350
sS'ASSIGNJS'
p351
S'<function ASSIGNJS>'
p352
sS'TR'
p353
S"<class 'gluon.html.TR'>"
p354
sS'__package__'
p355
S'None'
p356
sS'URL'
p357
S'<function URL>'
p358
sS'IFRAME'
p359
S"<class 'gluon.html.IFRAME'>"
p360
sS'TD'
p361
S"<class 'gluon.html.TD'>"
p362
sS'IS_URL'
p363
S"<class 'pydal.validators.IS_URL'>"
p364
sS'A'
S"<class 'gluon.html.A'>"
p365
sS'STYLE'
p366
S"<class 'gluon.html.STYLE'>"
p367
sS'IS_DATETIME_IN_RANGE'
p368
S"<class 'pydal.validators.IS_DATETIME_IN_RANGE'>"
p369
sS'IS_IMAGE'
p370
S"<class 'pydal.validators.IS_IMAGE'>"
p371
sS'I'
S"<class 'gluon.html.I'>"
p372
sS'IS_NOT_IN_DB'
p373
S"<class 'pydal.validators.IS_NOT_IN_DB'>"
p374
sS'IS_FILE'
p375
S"<class 'pydal.validators.IS_FILE'>"
p376
sg118
S"<Storage {'body': <cStringIO.StringO object at 0...0000AC33CF8>, 'view': 'api/log_on_twitter.html'}>"
p377
sS'THEAD'
p378
S"<class 'gluon.html.THEAD'>"
p379
sS'ANY_OF'
p380
S"<class 'pydal.validators.ANY_OF'>"
p381
sS'IS_NULL_OR'
p382
S"<class 'pydal.validators.IS_EMPTY_OR'>"
p383
sg58
S"<Storage {'_vars': <Storage {'word': 'tweet'}>, ...y\\\\applications\\\\twitter_api', 'method': 'POST'}>"
p384
sS'IS_EXPR'
p385
S"<class 'pydal.validators.IS_EXPR'>"
p386
sS'IS_IN_SET'
p387
S"<class 'pydal.validators.IS_IN_SET'>"
p388
sS'IS_UPLOAD_FILENAME'
p389
S"<class 'pydal.validators.IS_UPLOAD_FILENAME'>"
p390
sS'IS_DECIMAL_IN_RANGE'
p391
S"<class 'pydal.validators.IS_DECIMAL_IN_RANGE'>"
p392
sS'TT'
p393
S"<class 'gluon.html.TT'>"
p394
sS'TFOOT'
p395
S"<class 'gluon.html.TFOOT'>"
p396
sssS'traceback'
p397
S'Traceback (most recent call last):\n  File "C:\\Users\\Ignacio\\Desktop\\TFG\\Git\\web2py\\gluon\\restricted.py", line 219, in restricted\n    exec(ccode, environment)\n  File "C:\\Users\\Ignacio\\Desktop\\TFG\\Git\\web2py\\applications\\twitter_api\\controllers/api.py", line 33, in <module>\n    @my_decorator()\nNameError: name \'my_decorator\' is not defined\n'
p398
s.